Certificate:
    Data:
        Version: 3 (0x2)
        Serial Number: 16 (0x10)
    Signature Algorithm: sha256WithRSAEncryption
        Issuer: C=BE, ST=Brussels, L=Brussels, O=CA, OU=VUB, CN=CA/emailAddress=ca@vub.be
        Validity
            Not Before: May 17 06:25:08 2017 GMT
            Not After : Feb 11 06:25:08 2020 GMT
        Subject: C=BE, ST=Brussels, L=Brussels, O=VUB, CN=COLRUYT/domain=SuperMarket
        Subject Public Key Info:
            Public Key Algorithm: rsaEncryption
                Public-Key: (512 bit)
                Modulus:
                    00:b8:6f:00:1b:b8:18:c0:e0:dd:07:88:59:04:ed:
                    a1:8c:02:47:06:3d:97:7c:0b:90:1b:1f:27:1b:68:
                    d8:37:c6:27:37:23:4b:88:22:9a:18:2a:6a:83:48:
                    8e:49:0e:72:11:75:8a:08:cd:ed:ff:d1:bc:e8:c7:
                    61:8e:4a:55:d9
                Exponent: 65537 (0x10001)
        X509v3 extensions:
            X509v3 Subject Key Identifier: 
                09:59:3A:E7:F0:97:5F:5D:7D:4D:90:C0:A3:52:E3:BF:07:0F:1D:4E
            X509v3 Authority Key Identifier: 
                keyid:35:24:5A:6A:25:49:52:7B:9D:F5:4A:C1:28:8D:39:C7:7B:00:40:50

            X509v3 Basic Constraints: 
                CA:FALSE
            X509v3 Key Usage: 
                Digital Signature, Key Encipherment
            X509v3 Subject Alternative Name: 
                DNS:localhost, IP Address:127.0.0.1, IP Address:0:0:0:0:0:0:0:1
            Netscape Comment: 
                OpenSSL Generated Certificate
    Signature Algorithm: sha256WithRSAEncryption
         3b:1a:c7:57:7c:cb:4b:32:95:45:06:22:8c:92:4b:bb:7e:6d:
         8e:94:8c:1b:78:20:aa:c5:7a:04:20:6b:96:ca:90:00:3c:1d:
         0b:6b:d7:da:91:74:06:28:68:ee:53:c3:9a:7a:28:9f:44:e9:
         cc:48:c3:7d:bf:d7:97:47:66:73
-----BEGIN CERTIFICATE-----
MIICjjCCAjigAwIBAgIBEDANBgkqhkiG9w0BAQsFADB1MQswCQYDVQQGEwJCRTER
MA8GA1UECAwIQnJ1c3NlbHMxETAPBgNVBAcMCEJydXNzZWxzMQswCQYDVQQKDAJD
QTEMMAoGA1UECwwDVlVCMQswCQYDVQQDDAJDQTEYMBYGCSqGSIb3DQEJARYJY2FA
dnViLmJlMB4XDTE3MDUxNzA2MjUwOFoXDTIwMDIxMTA2MjUwOFowcDELMAkGA1UE
BhMCQkUxETAPBgNVBAgMCEJydXNzZWxzMREwDwYDVQQHDAhCcnVzc2VsczEMMAoG
A1UECgwDVlVCMRAwDgYDVQQDDAdDT0xSVVlUMRswGQYKCZImiZPyLGQEDQwLU3Vw
ZXJNYXJrZXQwXDANBgkqhkiG9w0BAQEFAANLADBIAkEAuG8AG7gYwODdB4hZBO2h
jAJHBj2XfAuQGx8nG2jYN8YnNyNLiCKaGCpqg0iOSQ5yEXWKCM3t/9G86MdhjkpV
2QIDAQABo4G3MIG0MB0GA1UdDgQWBBQJWTrn8JdfXX1NkMCjUuO/Bw8dTjAfBgNV
HSMEGDAWgBQ1JFpqJUlSe531SsEojTnHewBAUDAJBgNVHRMEAjAAMAsGA1UdDwQE
AwIFoDAsBgNVHREEJTAjgglsb2NhbGhvc3SHBH8AAAGHEAAAAAAAAAAAAAAAAAAA
AAEwLAYJYIZIAYb4QgENBB8WHU9wZW5TU0wgR2VuZXJhdGVkIENlcnRpZmljYXRl
MA0GCSqGSIb3DQEBCwUAA0EAOxrHV3zLSzKVRQYijJJLu35tjpSMG3ggqsV6BCBr
lsqQADwdC2vX2pF0Biho7lPDmnoon0TpzEjDfb/Xl0dmcw==
-----END CERTIFICATE-----
