Certificate:
    Data:
        Version: 3 (0x2)
        Serial Number: 20 (0x14)
    Signature Algorithm: sha256WithRSAEncryption
        Issuer: C=BE, ST=Brussels, L=Brussels, O=CA, OU=VUB, CN=CA/emailAddress=ca@vub.be
        Validity
            Not Before: May 17 06:26:02 2017 GMT
            Not After : Feb 11 06:26:02 2020 GMT
        Subject: C=BE, ST=Brussels, L=Brussels, O=VUB, CN=COMMON/domain=common
        Subject Public Key Info:
            Public Key Algorithm: rsaEncryption
                Public-Key: (512 bit)
                Modulus:
                    00:d7:fd:06:0b:ae:fa:28:99:da:a6:d1:9b:88:0e:
                    6c:93:b3:38:9b:5e:ab:34:c4:d4:60:ec:70:a8:94:
                    e5:51:05:67:20:55:4a:8e:33:7e:6c:5d:fe:30:98:
                    ac:a7:92:94:dc:db:6d:58:ff:62:66:f5:95:7d:43:
                    52:3a:bd:c3:e5
                Exponent: 65537 (0x10001)
        X509v3 extensions:
            X509v3 Subject Key Identifier: 
                82:11:D4:22:1D:77:03:A4:F1:58:CD:4F:1C:4E:46:42:D8:25:1B:29
            X509v3 Authority Key Identifier: 
                keyid:35:24:5A:6A:25:49:52:7B:9D:F5:4A:C1:28:8D:39:C7:7B:00:40:50

            X509v3 Basic Constraints: 
                CA:FALSE
            X509v3 Key Usage: 
                Digital Signature, Key Encipherment
            X509v3 Subject Alternative Name: 
                DNS:localhost, IP Address:127.0.0.1, IP Address:0:0:0:0:0:0:0:1
            Netscape Comment: 
                OpenSSL Generated Certificate
    Signature Algorithm: sha256WithRSAEncryption
         33:2f:b1:98:86:c6:44:0c:a9:88:85:34:f2:0e:d7:8e:c0:59:
         18:15:1d:ba:6c:79:45:eb:60:47:c8:1c:7f:59:dc:b6:fe:28:
         f8:93:ab:89:da:c8:67:58:f4:45:90:f0:b6:dc:0a:e2:4a:19:
         2f:2b:0b:0c:a0:cd:c9:ba:86:f4
-----BEGIN CERTIFICATE-----
MIICiDCCAjKgAwIBAgIBFDANBgkqhkiG9w0BAQsFADB1MQswCQYDVQQGEwJCRTER
MA8GA1UECAwIQnJ1c3NlbHMxETAPBgNVBAcMCEJydXNzZWxzMQswCQYDVQQKDAJD
QTEMMAoGA1UECwwDVlVCMQswCQYDVQQDDAJDQTEYMBYGCSqGSIb3DQEJARYJY2FA
dnViLmJlMB4XDTE3MDUxNzA2MjYwMloXDTIwMDIxMTA2MjYwMlowajELMAkGA1UE
BhMCQkUxETAPBgNVBAgMCEJydXNzZWxzMREwDwYDVQQHDAhCcnVzc2VsczEMMAoG
A1UECgwDVlVCMQ8wDQYDVQQDDAZDT01NT04xFjAUBgoJkiaJk/IsZAQNDAZjb21t
b24wXDANBgkqhkiG9w0BAQEFAANLADBIAkEA1/0GC676KJnaptGbiA5sk7M4m16r
NMTUYOxwqJTlUQVnIFVKjjN+bF3+MJisp5KU3NttWP9iZvWVfUNSOr3D5QIDAQAB
o4G3MIG0MB0GA1UdDgQWBBSCEdQiHXcDpPFYzU8cTkZC2CUbKTAfBgNVHSMEGDAW
gBQ1JFpqJUlSe531SsEojTnHewBAUDAJBgNVHRMEAjAAMAsGA1UdDwQEAwIFoDAs
BgNVHREEJTAjgglsb2NhbGhvc3SHBH8AAAGHEAAAAAAAAAAAAAAAAAAAAAEwLAYJ
YIZIAYb4QgENBB8WHU9wZW5TU0wgR2VuZXJhdGVkIENlcnRpZmljYXRlMA0GCSqG
SIb3DQEBCwUAA0EAMy+xmIbGRAypiIU08g7XjsBZGBUdumx5RetgR8gcf1nctv4o
+JOridrIZ1j0RZDwttwK4koZLysLDKDNybqG9A==
-----END CERTIFICATE-----
