Certificate:
    Data:
        Version: 3 (0x2)
        Serial Number: 17 (0x11)
    Signature Algorithm: sha256WithRSAEncryption
        Issuer: C=BE, ST=Brussels, L=Brussels, O=CA, OU=VUB, CN=CA/emailAddress=ca@vub.be
        Validity
            Not Before: May 17 06:25:18 2017 GMT
            Not After : Feb 11 06:25:18 2020 GMT
        Subject: C=BE, ST=Brussels, L=Brussels, O=VUB, CN=DELHAIZE/domain=SuperMarket
        Subject Public Key Info:
            Public Key Algorithm: rsaEncryption
                Public-Key: (512 bit)
                Modulus:
                    00:af:cc:2a:8e:ee:40:cd:9d:1c:34:ce:a2:ca:0a:
                    63:37:7b:cb:70:eb:fb:04:19:dd:ef:be:16:d1:c1:
                    34:00:9d:59:68:03:b3:c3:d6:7d:27:84:6e:63:60:
                    9f:10:6c:ae:e6:6a:21:9f:f1:e7:ee:d6:c8:25:85:
                    48:c6:ff:36:bb
                Exponent: 65537 (0x10001)
        X509v3 extensions:
            X509v3 Subject Key Identifier: 
                8C:62:94:BD:97:A2:EC:05:49:86:40:90:58:B4:50:32:A4:8A:B9:AA
            X509v3 Authority Key Identifier: 
                keyid:35:24:5A:6A:25:49:52:7B:9D:F5:4A:C1:28:8D:39:C7:7B:00:40:50

            X509v3 Basic Constraints: 
                CA:FALSE
            X509v3 Key Usage: 
                Digital Signature, Key Encipherment
            X509v3 Subject Alternative Name: 
                DNS:localhost, IP Address:127.0.0.1, IP Address:0:0:0:0:0:0:0:1
            Netscape Comment: 
                OpenSSL Generated Certificate
    Signature Algorithm: sha256WithRSAEncryption
         6c:86:12:b7:ad:d0:fd:a0:cc:2e:df:cf:81:93:93:42:ef:fd:
         60:7f:07:ed:99:4a:e0:87:f1:4a:a7:4c:49:da:ec:e7:f9:95:
         05:ac:17:38:e4:b0:3f:33:ee:13:75:b5:f7:90:d8:c3:25:3f:
         40:00:bb:37:b6:80:90:29:95:ca
-----BEGIN CERTIFICATE-----
MIICjzCCAjmgAwIBAgIBETANBgkqhkiG9w0BAQsFADB1MQswCQYDVQQGEwJCRTER
MA8GA1UECAwIQnJ1c3NlbHMxETAPBgNVBAcMCEJydXNzZWxzMQswCQYDVQQKDAJD
QTEMMAoGA1UECwwDVlVCMQswCQYDVQQDDAJDQTEYMBYGCSqGSIb3DQEJARYJY2FA
dnViLmJlMB4XDTE3MDUxNzA2MjUxOFoXDTIwMDIxMTA2MjUxOFowcTELMAkGA1UE
BhMCQkUxETAPBgNVBAgMCEJydXNzZWxzMREwDwYDVQQHDAhCcnVzc2VsczEMMAoG
A1UECgwDVlVCMREwDwYDVQQDDAhERUxIQUlaRTEbMBkGCgmSJomT8ixkBA0MC1N1
cGVyTWFya2V0MFwwDQYJKoZIhvcNAQEBBQADSwAwSAJBAK/MKo7uQM2dHDTOosoK
Yzd7y3Dr+wQZ3e++FtHBNACdWWgDs8PWfSeEbmNgnxBsruZqIZ/x5+7WyCWFSMb/
NrsCAwEAAaOBtzCBtDAdBgNVHQ4EFgQUjGKUvZei7AVJhkCQWLRQMqSKuaowHwYD
VR0jBBgwFoAUNSRaaiVJUnud9UrBKI05x3sAQFAwCQYDVR0TBAIwADALBgNVHQ8E
BAMCBaAwLAYDVR0RBCUwI4IJbG9jYWxob3N0hwR/AAABhxAAAAAAAAAAAAAAAAAA
AAABMCwGCWCGSAGG+EIBDQQfFh1PcGVuU1NMIEdlbmVyYXRlZCBDZXJ0aWZpY2F0
ZTANBgkqhkiG9w0BAQsFAANBAGyGEret0P2gzC7fz4GTk0Lv/WB/B+2ZSuCH8Uqn
TEna7Of5lQWsFzjksD8z7hN1tfeQ2MMlP0AAuze2gJAplco=
-----END CERTIFICATE-----
