Certificate:
    Data:
        Version: 3 (0x2)
        Serial Number: 14 (0xe)
    Signature Algorithm: sha256WithRSAEncryption
        Issuer: C=BE, ST=Brussels, L=Brussels, O=CA, OU=VUB, CN=CA/emailAddress=ca@vub.be
        Validity
            Not Before: May 17 06:24:42 2017 GMT
            Not After : Feb 11 06:24:42 2020 GMT
        Subject: C=BE, ST=Brussels, L=Brussels, O=VUB, CN=FACEBOOK/domain=SocNet
        Subject Public Key Info:
            Public Key Algorithm: rsaEncryption
                Public-Key: (512 bit)
                Modulus:
                    00:ea:d7:5f:d5:f6:36:f5:34:20:86:0f:27:d8:14:
                    64:e1:cf:da:d8:61:c5:f6:d3:e3:66:9c:a4:ed:23:
                    a1:52:db:1e:51:a4:10:07:c0:f5:6e:0b:97:f5:ae:
                    88:35:1a:32:96:c1:51:b8:b9:e5:66:83:5f:07:4b:
                    62:a3:fb:e0:e5
                Exponent: 65537 (0x10001)
        X509v3 extensions:
            X509v3 Subject Key Identifier: 
                AA:FC:2E:FC:56:78:BF:39:BC:9B:36:51:41:F8:23:3E:75:22:F1:B1
            X509v3 Authority Key Identifier: 
                keyid:35:24:5A:6A:25:49:52:7B:9D:F5:4A:C1:28:8D:39:C7:7B:00:40:50

            X509v3 Basic Constraints: 
                CA:FALSE
            X509v3 Key Usage: 
                Digital Signature, Key Encipherment
            X509v3 Subject Alternative Name: 
                DNS:localhost, IP Address:127.0.0.1, IP Address:0:0:0:0:0:0:0:1
            Netscape Comment: 
                OpenSSL Generated Certificate
    Signature Algorithm: sha256WithRSAEncryption
         6b:54:81:34:e2:0b:af:44:2e:cd:6f:4c:ec:a3:86:a7:f3:d5:
         78:73:f0:af:82:51:a1:a9:c8:2b:d8:a5:e8:80:b7:18:f9:c7:
         08:ac:b2:03:23:2c:a9:b0:fb:57:c7:f1:23:71:55:d7:e4:9b:
         38:1f:c3:0c:57:b7:9b:a1:e0:e7
-----BEGIN CERTIFICATE-----
MIICijCCAjSgAwIBAgIBDjANBgkqhkiG9w0BAQsFADB1MQswCQYDVQQGEwJCRTER
MA8GA1UECAwIQnJ1c3NlbHMxETAPBgNVBAcMCEJydXNzZWxzMQswCQYDVQQKDAJD
QTEMMAoGA1UECwwDVlVCMQswCQYDVQQDDAJDQTEYMBYGCSqGSIb3DQEJARYJY2FA
dnViLmJlMB4XDTE3MDUxNzA2MjQ0MloXDTIwMDIxMTA2MjQ0MlowbDELMAkGA1UE
BhMCQkUxETAPBgNVBAgMCEJydXNzZWxzMREwDwYDVQQHDAhCcnVzc2VsczEMMAoG
A1UECgwDVlVCMREwDwYDVQQDDAhGQUNFQk9PSzEWMBQGCgmSJomT8ixkBA0MBlNv
Y05ldDBcMA0GCSqGSIb3DQEBAQUAA0sAMEgCQQDq11/V9jb1NCCGDyfYFGThz9rY
YcX20+NmnKTtI6FS2x5RpBAHwPVuC5f1rog1GjKWwVG4ueVmg18HS2Kj++DlAgMB
AAGjgbcwgbQwHQYDVR0OBBYEFKr8LvxWeL85vJs2UUH4Iz51IvGxMB8GA1UdIwQY
MBaAFDUkWmolSVJ7nfVKwSiNOcd7AEBQMAkGA1UdEwQCMAAwCwYDVR0PBAQDAgWg
MCwGA1UdEQQlMCOCCWxvY2FsaG9zdIcEfwAAAYcQAAAAAAAAAAAAAAAAAAAAATAs
BglghkgBhvhCAQ0EHxYdT3BlblNTTCBHZW5lcmF0ZWQgQ2VydGlmaWNhdGUwDQYJ
KoZIhvcNAQELBQADQQBrVIE04guvRC7Nb0zso4an89V4c/CvglGhqcgr2KXogLcY
+ccIrLIDIyypsPtXx/EjcVXX5Js4H8MMV7eboeDn
-----END CERTIFICATE-----
