Certificate:
    Data:
        Version: 3 (0x2)
        Serial Number: 11 (0xb)
    Signature Algorithm: sha256WithRSAEncryption
        Issuer: C=BE, ST=Brussels, L=Brussels, O=CA, OU=VUB, CN=CA/emailAddress=ca@vub.be
        Validity
            Not Before: May 17 06:23:59 2017 GMT
            Not After : Feb 11 06:23:59 2020 GMT
        Subject: C=BE, ST=Brussels, L=Brussels, O=VUB, CN=GOV
        Subject Public Key Info:
            Public Key Algorithm: rsaEncryption
                Public-Key: (512 bit)
                Modulus:
                    00:c7:a1:d9:4e:cd:0c:38:d4:79:c4:19:ee:1a:01:
                    7b:13:e0:5a:9c:c2:7b:b2:ae:ba:ea:6f:3b:5e:4d:
                    6d:89:74:e4:a7:3c:4f:4a:7f:2c:6b:52:22:2f:72:
                    ed:b3:f4:9c:63:4f:6c:fc:ad:16:e1:1b:66:b6:5a:
                    e8:69:f4:5e:4b
                Exponent: 65537 (0x10001)
        X509v3 extensions:
            X509v3 Subject Key Identifier: 
                40:2A:63:56:07:C7:7E:36:45:8D:6C:9D:94:4A:2D:41:9F:F0:B0:2F
            X509v3 Authority Key Identifier: 
                keyid:35:24:5A:6A:25:49:52:7B:9D:F5:4A:C1:28:8D:39:C7:7B:00:40:50

            X509v3 Basic Constraints: 
                CA:FALSE
            X509v3 Key Usage: 
                Digital Signature, Key Encipherment
            X509v3 Subject Alternative Name: 
                DNS:localhost, IP Address:127.0.0.1, IP Address:0:0:0:0:0:0:0:1
            Netscape Comment: 
                OpenSSL Generated Certificate
    Signature Algorithm: sha256WithRSAEncryption
         82:4e:ff:9c:2f:07:47:3b:bf:43:9b:bd:d4:27:aa:a9:2d:56:
         bd:96:a9:ff:7e:ee:b3:90:f4:d6:ea:82:28:6b:49:82:8d:b9:
         87:85:b1:68:58:b6:8a:f5:60:aa:f9:df:89:b6:73:36:16:f4:
         fe:db:2f:bd:35:54:78:8b:9b:54
-----BEGIN CERTIFICATE-----
MIICbTCCAhegAwIBAgIBCzANBgkqhkiG9w0BAQsFADB1MQswCQYDVQQGEwJCRTER
MA8GA1UECAwIQnJ1c3NlbHMxETAPBgNVBAcMCEJydXNzZWxzMQswCQYDVQQKDAJD
QTEMMAoGA1UECwwDVlVCMQswCQYDVQQDDAJDQTEYMBYGCSqGSIb3DQEJARYJY2FA
dnViLmJlMB4XDTE3MDUxNzA2MjM1OVoXDTIwMDIxMTA2MjM1OVowTzELMAkGA1UE
BhMCQkUxETAPBgNVBAgMCEJydXNzZWxzMREwDwYDVQQHDAhCcnVzc2VsczEMMAoG
A1UECgwDVlVCMQwwCgYDVQQDDANHT1YwXDANBgkqhkiG9w0BAQEFAANLADBIAkEA
x6HZTs0MONR5xBnuGgF7E+BanMJ7sq666m87Xk1tiXTkpzxPSn8sa1IiL3Lts/Sc
Y09s/K0W4RtmtlroafReSwIDAQABo4G3MIG0MB0GA1UdDgQWBBRAKmNWB8d+NkWN
bJ2USi1Bn/CwLzAfBgNVHSMEGDAWgBQ1JFpqJUlSe531SsEojTnHewBAUDAJBgNV
HRMEAjAAMAsGA1UdDwQEAwIFoDAsBgNVHREEJTAjgglsb2NhbGhvc3SHBH8AAAGH
EAAAAAAAAAAAAAAAAAAAAAEwLAYJYIZIAYb4QgENBB8WHU9wZW5TU0wgR2VuZXJh
dGVkIENlcnRpZmljYXRlMA0GCSqGSIb3DQEBCwUAA0EAgk7/nC8HRzu/Q5u91Ceq
qS1WvZap/37us5D01uqCKGtJgo25h4WxaFi2ivVgqvnfibZzNhb0/tsvvTVUeIub
VA==
-----END CERTIFICATE-----
