Certificate:
    Data:
        Version: 3 (0x2)
        Serial Number: 13 (0xd)
    Signature Algorithm: sha256WithRSAEncryption
        Issuer: C=BE, ST=Brussels, L=Brussels, O=CA, OU=VUB, CN=CA/emailAddress=ca@vub.be
        Validity
            Not Before: May 17 06:24:31 2017 GMT
            Not After : Feb 11 06:24:31 2020 GMT
        Subject: C=BE, ST=Brussels, L=Brussels, O=VUB, CN=STUDENTPORTAL/domain=eGov
        Subject Public Key Info:
            Public Key Algorithm: rsaEncryption
                Public-Key: (512 bit)
                Modulus:
                    00:c0:8f:cf:cb:ae:8d:f6:cb:d5:6f:23:96:80:99:
                    15:86:93:f8:eb:f2:18:61:27:40:e6:db:ff:79:20:
                    9d:41:16:7b:48:8c:82:a8:3d:32:25:0e:de:bd:11:
                    e8:9a:d5:a5:39:7e:ff:53:3e:f8:f2:a4:aa:38:cf:
                    4a:3c:80:fd:91
                Exponent: 65537 (0x10001)
        X509v3 extensions:
            X509v3 Subject Key Identifier: 
                24:4E:8E:BC:A5:57:12:FD:DB:5A:72:CF:D9:75:82:DB:17:6A:FA:C0
            X509v3 Authority Key Identifier: 
                keyid:35:24:5A:6A:25:49:52:7B:9D:F5:4A:C1:28:8D:39:C7:7B:00:40:50

            X509v3 Basic Constraints: 
                CA:FALSE
            X509v3 Key Usage: 
                Digital Signature, Key Encipherment
            X509v3 Subject Alternative Name: 
                DNS:localhost, IP Address:127.0.0.1, IP Address:0:0:0:0:0:0:0:1
            Netscape Comment: 
                OpenSSL Generated Certificate
    Signature Algorithm: sha256WithRSAEncryption
         7a:8f:70:b6:63:d9:d1:3d:b5:fb:bb:8f:80:31:ec:f5:b7:fa:
         48:13:5d:b4:4a:f9:3c:8b:16:e6:31:d3:b4:26:cb:f0:c9:bb:
         5b:0f:b7:b2:1d:b0:22:43:a9:90:f9:9e:a2:97:06:60:0e:f3:
         c1:89:58:91:06:0f:a1:d0:c0:e8
-----BEGIN CERTIFICATE-----
MIICjTCCAjegAwIBAgIBDTANBgkqhkiG9w0BAQsFADB1MQswCQYDVQQGEwJCRTER
MA8GA1UECAwIQnJ1c3NlbHMxETAPBgNVBAcMCEJydXNzZWxzMQswCQYDVQQKDAJD
QTEMMAoGA1UECwwDVlVCMQswCQYDVQQDDAJDQTEYMBYGCSqGSIb3DQEJARYJY2FA
dnViLmJlMB4XDTE3MDUxNzA2MjQzMVoXDTIwMDIxMTA2MjQzMVowbzELMAkGA1UE
BhMCQkUxETAPBgNVBAgMCEJydXNzZWxzMREwDwYDVQQHDAhCcnVzc2VsczEMMAoG
A1UECgwDVlVCMRYwFAYDVQQDDA1TVFVERU5UUE9SVEFMMRQwEgYKCZImiZPyLGQE
DQwEZUdvdjBcMA0GCSqGSIb3DQEBAQUAA0sAMEgCQQDAj8/Lro32y9VvI5aAmRWG
k/jr8hhhJ0Dm2/95IJ1BFntIjIKoPTIlDt69Eeia1aU5fv9TPvjypKo4z0o8gP2R
AgMBAAGjgbcwgbQwHQYDVR0OBBYEFCROjrylVxL921pyz9l1gtsXavrAMB8GA1Ud
IwQYMBaAFDUkWmolSVJ7nfVKwSiNOcd7AEBQMAkGA1UdEwQCMAAwCwYDVR0PBAQD
AgWgMCwGA1UdEQQlMCOCCWxvY2FsaG9zdIcEfwAAAYcQAAAAAAAAAAAAAAAAAAAA
ATAsBglghkgBhvhCAQ0EHxYdT3BlblNTTCBHZW5lcmF0ZWQgQ2VydGlmaWNhdGUw
DQYJKoZIhvcNAQELBQADQQB6j3C2Y9nRPbX7u4+AMez1t/pIE120Svk8ixbmMdO0
JsvwybtbD7eyHbAiQ6mQ+Z6ilwZgDvPBiViRBg+h0MDo
-----END CERTIFICATE-----
