Certificate:
    Data:
        Version: 3 (0x2)
        Serial Number: 12 (0xc)
    Signature Algorithm: sha256WithRSAEncryption
        Issuer: C=BE, ST=Brussels, L=Brussels, O=CA, OU=VUB, CN=CA/emailAddress=ca@vub.be
        Validity
            Not Before: May 17 06:24:15 2017 GMT
            Not After : Feb 11 06:24:15 2020 GMT
        Subject: C=BE, ST=Brussels, L=Brussels, O=VUB, CN=TAXONWEB/domain=eGov
        Subject Public Key Info:
            Public Key Algorithm: rsaEncryption
                Public-Key: (512 bit)
                Modulus:
                    00:b7:bc:f1:03:28:04:6a:89:94:ad:a7:5b:f4:62:
                    be:e1:12:ca:c1:5a:5e:32:42:18:de:b9:ed:3a:33:
                    66:3b:1b:e4:69:d5:5d:26:3e:d4:4f:0a:03:a6:b9:
                    b9:ce:ca:b3:29:96:df:9e:ea:d2:23:7b:a9:a9:c1:
                    d0:34:e4:12:bd
                Exponent: 65537 (0x10001)
        X509v3 extensions:
            X509v3 Subject Key Identifier: 
                9C:FB:76:A8:E0:DC:BD:D9:22:A2:A9:0F:35:88:7A:2D:81:AB:56:C5
            X509v3 Authority Key Identifier: 
                keyid:35:24:5A:6A:25:49:52:7B:9D:F5:4A:C1:28:8D:39:C7:7B:00:40:50

            X509v3 Basic Constraints: 
                CA:FALSE
            X509v3 Key Usage: 
                Digital Signature, Key Encipherment
            X509v3 Subject Alternative Name: 
                DNS:localhost, IP Address:127.0.0.1, IP Address:0:0:0:0:0:0:0:1
            Netscape Comment: 
                OpenSSL Generated Certificate
    Signature Algorithm: sha256WithRSAEncryption
         ad:72:4b:96:ba:96:dc:6b:6e:cb:65:a7:6d:f8:d2:2a:d3:55:
         f4:7b:0a:10:b0:05:bc:bf:1a:45:aa:17:5a:30:4f:54:7c:59:
         0d:4e:8d:b5:42:a2:2b:42:b6:f1:0e:b5:d2:cb:fc:a4:6b:97:
         d2:04:84:09:63:a7:0a:69:3f:f8
-----BEGIN CERTIFICATE-----
MIICiDCCAjKgAwIBAgIBDDANBgkqhkiG9w0BAQsFADB1MQswCQYDVQQGEwJCRTER
MA8GA1UECAwIQnJ1c3NlbHMxETAPBgNVBAcMCEJydXNzZWxzMQswCQYDVQQKDAJD
QTEMMAoGA1UECwwDVlVCMQswCQYDVQQDDAJDQTEYMBYGCSqGSIb3DQEJARYJY2FA
dnViLmJlMB4XDTE3MDUxNzA2MjQxNVoXDTIwMDIxMTA2MjQxNVowajELMAkGA1UE
BhMCQkUxETAPBgNVBAgMCEJydXNzZWxzMREwDwYDVQQHDAhCcnVzc2VsczEMMAoG
A1UECgwDVlVCMREwDwYDVQQDDAhUQVhPTldFQjEUMBIGCgmSJomT8ixkBA0MBGVH
b3YwXDANBgkqhkiG9w0BAQEFAANLADBIAkEAt7zxAygEaomUradb9GK+4RLKwVpe
MkIY3rntOjNmOxvkadVdJj7UTwoDprm5zsqzKZbfnurSI3upqcHQNOQSvQIDAQAB
o4G3MIG0MB0GA1UdDgQWBBSc+3ao4Ny92SKiqQ81iHotgatWxTAfBgNVHSMEGDAW
gBQ1JFpqJUlSe531SsEojTnHewBAUDAJBgNVHRMEAjAAMAsGA1UdDwQEAwIFoDAs
BgNVHREEJTAjgglsb2NhbGhvc3SHBH8AAAGHEAAAAAAAAAAAAAAAAAAAAAEwLAYJ
YIZIAYb4QgENBB8WHU9wZW5TU0wgR2VuZXJhdGVkIENlcnRpZmljYXRlMA0GCSqG
SIb3DQEBCwUAA0EArXJLlrqW3Gtuy2WnbfjSKtNV9HsKELAFvL8aRaoXWjBPVHxZ
DU6NtUKiK0K28Q610sv8pGuX0gSECWOnCmk/+A==
-----END CERTIFICATE-----
