Certificate:
    Data:
        Version: 3 (0x2)
        Serial Number: 1 (0x1)
    Signature Algorithm: sha256WithRSAEncryption
        Issuer: C=BE, ST=Brussels, L=Brussels, O=CA, OU=VUB, CN=CA/emailAddress=ca@vub.be
        Validity
            Not Before: May  7 14:31:55 2017 GMT
            Not After : Feb  1 14:31:55 2020 GMT
        Subject: C=BE, ST=Brussels, L=Brussels, O=VUB, CN=GOV
        Subject Public Key Info:
            Public Key Algorithm: rsaEncryption
                Public-Key: (512 bit)
                Modulus:
                    00:ab:f3:c4:e6:71:ee:77:3f:ac:fb:ca:a0:4b:fb:
                    e1:eb:3a:74:09:73:ab:00:7b:e9:81:48:1e:00:34:
                    81:13:67:61:61:6a:ce:72:e3:9b:09:13:d2:b4:7c:
                    14:f2:1f:b7:e7:f2:24:88:94:cc:99:92:01:63:1f:
                    53:e7:4b:0a:ed
                Exponent: 65537 (0x10001)
        X509v3 extensions:
            X509v3 Subject Key Identifier: 
                DB:72:2F:8E:48:39:1E:6D:E3:DB:64:B1:AD:CA:F2:41:73:E1:20:21
            X509v3 Authority Key Identifier: 
                keyid:FA:FF:2F:73:86:E7:AF:24:F4:6E:A5:EA:73:4F:70:3C:D8:E3:40:7B

            X509v3 Basic Constraints: 
                CA:FALSE
            X509v3 Key Usage: 
                Digital Signature, Key Encipherment
            X509v3 Subject Alternative Name: 
                DNS:localhost, IP Address:127.0.0.1, IP Address:0:0:0:0:0:0:0:1
            Netscape Comment: 
                OpenSSL Generated Certificate
    Signature Algorithm: sha256WithRSAEncryption
         80:1a:09:d3:12:7f:38:6b:32:e5:b3:f9:46:87:1d:d1:c2:82:
         54:81:4b:c2:c1:15:35:bd:67:c4:9f:ed:21:e0:30:74:30:8b:
         41:f3:67:d6:53:6c:64:19:49:bd:4f:63:ad:af:e2:16:80:f6:
         f9:8d:7e:a6:d7:d4:f3:7b:b9:89
-----BEGIN CERTIFICATE-----
MIICbTCCAhegAwIBAgIBATANBgkqhkiG9w0BAQsFADB1MQswCQYDVQQGEwJCRTER
MA8GA1UECAwIQnJ1c3NlbHMxETAPBgNVBAcMCEJydXNzZWxzMQswCQYDVQQKDAJD
QTEMMAoGA1UECwwDVlVCMQswCQYDVQQDDAJDQTEYMBYGCSqGSIb3DQEJARYJY2FA
dnViLmJlMB4XDTE3MDUwNzE0MzE1NVoXDTIwMDIwMTE0MzE1NVowTzELMAkGA1UE
BhMCQkUxETAPBgNVBAgMCEJydXNzZWxzMREwDwYDVQQHDAhCcnVzc2VsczEMMAoG
A1UECgwDVlVCMQwwCgYDVQQDDANHT1YwXDANBgkqhkiG9w0BAQEFAANLADBIAkEA
q/PE5nHudz+s+8qgS/vh6zp0CXOrAHvpgUgeADSBE2dhYWrOcuObCRPStHwU8h+3
5/IkiJTMmZIBYx9T50sK7QIDAQABo4G3MIG0MB0GA1UdDgQWBBTbci+OSDkebePb
ZLGtyvJBc+EgITAfBgNVHSMEGDAWgBT6/y9zhuevJPRupepzT3A82ONAezAJBgNV
HRMEAjAAMAsGA1UdDwQEAwIFoDAsBgNVHREEJTAjgglsb2NhbGhvc3SHBH8AAAGH
EAAAAAAAAAAAAAAAAAAAAAEwLAYJYIZIAYb4QgENBB8WHU9wZW5TU0wgR2VuZXJh
dGVkIENlcnRpZmljYXRlMA0GCSqGSIb3DQEBCwUAA0EAgBoJ0xJ/OGsy5bP5Rocd
0cKCVIFLwsEVNb1nxJ/tIeAwdDCLQfNn1lNsZBlJvU9jra/iFoD2+Y1+ptfU83u5
iQ==
-----END CERTIFICATE-----
