Certificate:
    Data:
        Version: 3 (0x2)
        Serial Number: 2 (0x2)
    Signature Algorithm: sha256WithRSAEncryption
        Issuer: C=BE, ST=Brussels, L=Brussels, O=CA, OU=VUB, CN=CA/emailAddress=ca@vub.be
        Validity
            Not Before: May  7 13:23:39 2017 GMT
            Not After : Feb  1 13:23:39 2020 GMT
        Subject: C=BE, ST=Brussels, L=Brussels, O=VUB, CN=TAXONWEB/domain=eGov
        Subject Public Key Info:
            Public Key Algorithm: rsaEncryption
                Public-Key: (2048 bit)
                Modulus:
                    00:d5:f4:06:b4:71:28:da:70:37:ac:9c:d1:98:b7:
                    d2:b3:35:82:5d:ae:d5:a7:c9:63:62:c2:19:df:21:
                    f7:1a:bb:ac:36:ef:0c:c0:30:e3:c9:46:4d:51:3a:
                    40:21:03:52:57:da:c3:0b:7c:eb:0e:7b:1f:61:50:
                    03:82:f5:15:c7:89:94:18:a0:b5:65:8c:ae:9d:fa:
                    19:58:77:5a:4c:b9:0b:6d:88:0b:de:fa:7d:36:23:
                    14:e7:56:cd:38:54:ba:a3:29:5c:14:d6:71:54:68:
                    f6:bc:12:cb:43:65:1f:43:db:5b:19:b2:08:52:b5:
                    27:5e:e3:ea:d3:d5:6e:3d:18:42:79:ce:4e:7d:9c:
                    52:29:e8:9d:a7:02:9b:1d:a8:7d:ec:7b:82:ea:30:
                    29:d4:74:1a:19:ee:8d:3d:a0:29:df:96:7c:82:59:
                    dc:e5:41:53:20:e6:14:1e:67:62:88:af:81:25:a1:
                    a9:33:b7:82:71:55:d3:d5:03:6f:f4:f3:64:0e:3b:
                    e0:75:74:12:3e:c8:10:af:39:a9:c4:6a:84:d3:3c:
                    0e:24:fb:d4:c3:be:53:f1:a2:7c:8a:a0:b4:19:8b:
                    d3:4e:49:22:95:88:a3:d2:29:e2:9a:7f:87:77:18:
                    af:47:76:13:cb:35:de:ee:22:d2:eb:0b:3d:3e:38:
                    41:63
                Exponent: 65537 (0x10001)
        X509v3 extensions:
            X509v3 Subject Key Identifier: 
                86:32:02:A9:85:2B:EF:7C:FB:AA:22:26:8F:23:9A:7C:1C:9C:0B:BD
            X509v3 Authority Key Identifier: 
                keyid:C5:86:00:BC:FF:4D:8E:2C:99:8B:52:12:78:A0:D7:70:B0:18:73:1C

            X509v3 Basic Constraints: 
                CA:FALSE
            X509v3 Key Usage: 
                Digital Signature, Key Encipherment
            X509v3 Subject Alternative Name: 
                DNS:localhost, IP Address:127.0.0.1, IP Address:0:0:0:0:0:0:0:1
            Netscape Comment: 
                OpenSSL Generated Certificate
    Signature Algorithm: sha256WithRSAEncryption
         34:81:c4:17:1e:88:74:15:d6:cd:3d:3e:05:5d:d1:20:75:4a:
         ff:3d:17:0d:94:fe:80:8f:6d:4b:bf:de:e2:c1:02:86:5e:a2:
         19:2e:fe:ca:40:1b:be:d5:47:3d:b6:f7:49:53:b3:93:c4:7a:
         c9:7a:55:0e:34:99:e8:9f:e2:02:1d:44:9a:10:4e:9a:0e:e7:
         eb:d7:68:7b:75:32:4d:9f:05:c9:8e:47:2c:1a:97:51:8c:f5:
         2a:de:e0:da:fb:b3:c5:76:c3:f5:65:37:9c:5f:8f:94:0a:ae:
         19:b0:4d:04:3b:37:34:53:af:c9:50:f1:c4:e0:24:8f:25:e5:
         d0:3c:f7:7f:50:a5:e8:19:84:20:c2:78:c6:4f:14:53:4e:ac:
         25:00:2f:ed:11:80:92:87:7d:50:57:a7:2c:a0:aa:4d:bd:06:
         fa:8e:60:2e:7a:c2:5b:e8:48:dc:c3:4d:e7:4d:de:0a:b0:3b:
         48:d3:bb:ca:cf:a9:45:d4:2b:7f:81:73:36:cd:f4:4f:cf:d4:
         84:69:c0:58:9f:86:72:12:7c:ac:11:40:88:0e:59:7f:5d:fc:
         f3:44:98:e0:53:99:52:52:45:60:1c:7c:43:79:d0:ae:f8:00:
         30:c3:c7:aa:0b:fb:d6:29:07:18:7b:98:20:64:48:ee:51:02:
         c1:cc:62:22:af:07:42:9b:dc:45:44:d2:ef:a9:73:78:9a:f2:
         e2:69:d4:f6:de:db:ab:83:ab:83:1f:19:67:f8:72:62:6e:7a:
         1d:ba:c6:20:02:85:e3:ba:97:7d:e5:b3:f9:b2:7c:44:ac:ab:
         df:a2:2f:6b:b5:3e:5a:8d:c0:63:dc:24:6d:8f:7e:89:49:60:
         06:ca:76:d6:29:50:55:c8:a4:aa:95:ac:89:d6:15:71:32:2b:
         fa:64:d2:8c:7a:e2:d4:26:da:1c:47:15:f9:a1:66:ff:f4:7a:
         87:49:d1:4c:4b:ba:46:17:3c:52:51:c7:d9:e7:81:a5:ec:ad:
         65:ae:a8:b0:8c:58:be:ef:7c:cb:30:4f:5c:5f:d5:d1:7f:7a:
         1d:42:39:3a:3b:50:47:5b:7a:67:9b:b5:e3:c0:44:2e:8b:fc:
         3b:99:55:c9:c2:9f:1f:61:15:1d:ac:a7:ab:74:ef:29:aa:e8:
         02:ce:20:58:3a:6f:3c:97:cc:3b:56:ac:8f:34:2f:e6:70:da:
         3c:29:ec:c3:e9:41:e0:c7:38:62:93:c3:9f:26:ba:7c:0b:5f:
         1a:9a:dc:80:6d:0d:9d:5c:1f:ca:4a:98:51:eb:a8:2c:be:08:
         7b:02:48:9c:d0:45:48:6f:34:35:e1:53:7d:49:fa:4b:12:b2:
         05:52:fa:3c:1e:3d:1d:33
-----BEGIN CERTIFICATE-----
MIIFEjCCAvqgAwIBAgIBAjANBgkqhkiG9w0BAQsFADB1MQswCQYDVQQGEwJCRTER
MA8GA1UECAwIQnJ1c3NlbHMxETAPBgNVBAcMCEJydXNzZWxzMQswCQYDVQQKDAJD
QTEMMAoGA1UECwwDVlVCMQswCQYDVQQDDAJDQTEYMBYGCSqGSIb3DQEJARYJY2FA
dnViLmJlMB4XDTE3MDUwNzEzMjMzOVoXDTIwMDIwMTEzMjMzOVowajELMAkGA1UE
BhMCQkUxETAPBgNVBAgMCEJydXNzZWxzMREwDwYDVQQHDAhCcnVzc2VsczEMMAoG
A1UECgwDVlVCMREwDwYDVQQDDAhUQVhPTldFQjEUMBIGCgmSJomT8ixkBA0MBGVH
b3YwggEiMA0GCSqGSIb3DQEBAQUAA4IBDwAwggEKAoIBAQDV9Aa0cSjacDesnNGY
t9KzNYJdrtWnyWNiwhnfIfcau6w27wzAMOPJRk1ROkAhA1JX2sMLfOsOex9hUAOC
9RXHiZQYoLVljK6d+hlYd1pMuQttiAve+n02IxTnVs04VLqjKVwU1nFUaPa8EstD
ZR9D21sZsghStSde4+rT1W49GEJ5zk59nFIp6J2nApsdqH3se4LqMCnUdBoZ7o09
oCnflnyCWdzlQVMg5hQeZ2KIr4Eloakzt4JxVdPVA2/082QOO+B1dBI+yBCvOanE
aoTTPA4k+9TDvlPxonyKoLQZi9NOSSKViKPSKeKaf4d3GK9HdhPLNd7uItLrCz0+
OEFjAgMBAAGjgbcwgbQwHQYDVR0OBBYEFIYyAqmFK+98+6oiJo8jmnwcnAu9MB8G
A1UdIwQYMBaAFMWGALz/TY4smYtSEnig13CwGHMcMAkGA1UdEwQCMAAwCwYDVR0P
BAQDAgWgMCwGA1UdEQQlMCOCCWxvY2FsaG9zdIcEfwAAAYcQAAAAAAAAAAAAAAAA
AAAAATAsBglghkgBhvhCAQ0EHxYdT3BlblNTTCBHZW5lcmF0ZWQgQ2VydGlmaWNh
dGUwDQYJKoZIhvcNAQELBQADggIBADSBxBceiHQV1s09PgVd0SB1Sv89Fw2U/oCP
bUu/3uLBAoZeohku/spAG77VRz2290lTs5PEesl6VQ40meif4gIdRJoQTpoO5+vX
aHt1Mk2fBcmORywal1GM9Sre4Nr7s8V2w/VlN5xfj5QKrhmwTQQ7NzRTr8lQ8cTg
JI8l5dA8939QpegZhCDCeMZPFFNOrCUAL+0RgJKHfVBXpyygqk29BvqOYC56wlvo
SNzDTedN3gqwO0jTu8rPqUXUK3+BczbN9E/P1IRpwFifhnISfKwRQIgOWX9d/PNE
mOBTmVJSRWAcfEN50K74ADDDx6oL+9YpBxh7mCBkSO5RAsHMYiKvB0Kb3EVE0u+p
c3ia8uJp1Pbe26uDq4MfGWf4cmJueh26xiACheO6l33ls/myfESsq9+iL2u1PlqN
wGPcJG2PfolJYAbKdtYpUFXIpKqVrInWFXEyK/pk0ox64tQm2hxHFfmhZv/0eodJ
0UxLukYXPFJRx9nngaXsrWWuqLCMWL7vfMswT1xf1dF/eh1COTo7UEdbemebtePA
RC6L/DuZVcnCnx9hFR2sp6t07ymq6ALOIFg6bzyXzDtWrI80L+Zw2jwp7MPpQeDH
OGKTw58munwLXxqa3IBtDZ1cH8pKmFHrqCy+CHsCSJzQRUhvNDXhU31J+ksSsgVS
+jwePR0z
-----END CERTIFICATE-----
