Certificate:
    Data:
        Version: 3 (0x2)
        Serial Number: 3 (0x3)
    Signature Algorithm: sha256WithRSAEncryption
        Issuer: C=BE, ST=Brussels, L=Brussels, O=CA, OU=VUB, CN=CA/emailAddress=ca@vub.be
        Validity
            Not Before: May  7 13:39:37 2017 GMT
            Not After : Feb  1 13:39:37 2020 GMT
        Subject: C=BE, ST=Brussels, L=Brussels, O=VUB, CN=STUDENTPORTAL/domain=eGov
        Subject Public Key Info:
            Public Key Algorithm: rsaEncryption
                Public-Key: (2048 bit)
                Modulus:
                    00:b0:55:0d:dc:95:22:e0:b3:5c:87:9a:2b:aa:4f:
                    bd:c0:4c:4b:4f:0b:26:ef:8d:c5:e1:7e:a1:38:9e:
                    ea:c6:cf:e2:19:41:0c:e2:ea:8f:f8:2f:36:b7:b8:
                    42:82:9e:a2:0c:4a:18:0f:a9:58:4e:93:54:09:98:
                    38:85:4d:58:bb:1c:ef:b2:38:b2:a2:98:e8:03:28:
                    c8:ed:38:b4:03:f9:f3:ec:51:1e:0b:fb:90:53:25:
                    74:da:b6:a9:95:db:9e:f8:f5:56:99:29:e3:5b:de:
                    a5:7f:5f:ce:c9:63:1c:45:45:ae:2d:67:9e:d8:2a:
                    6b:f6:41:7c:9d:90:fe:84:32:58:2a:75:8c:ed:24:
                    11:51:88:c7:95:c4:0b:6a:42:68:f9:2a:09:40:f7:
                    a0:62:86:26:ac:e7:61:53:36:1f:24:bb:63:02:4a:
                    a8:bc:f3:f5:12:c6:d3:d3:f9:9f:05:e3:c2:32:5b:
                    81:eb:6b:ca:9c:06:0a:18:ae:a3:4f:d1:29:a0:cc:
                    64:26:43:53:a6:58:82:8d:da:0f:d8:e9:17:1f:84:
                    cb:fb:80:a1:0f:3c:00:2c:d0:77:59:6e:4f:98:3f:
                    e7:94:d9:c5:ff:e1:18:13:38:b4:c4:1c:6c:99:47:
                    f7:ab:87:57:3a:3f:ec:cf:db:02:85:da:e1:bf:4e:
                    92:5b
                Exponent: 65537 (0x10001)
        X509v3 extensions:
            X509v3 Subject Key Identifier: 
                AF:5B:85:24:B7:C8:D0:E3:D6:69:0D:F3:84:52:49:39:80:47:42:01
            X509v3 Authority Key Identifier: 
                keyid:C5:86:00:BC:FF:4D:8E:2C:99:8B:52:12:78:A0:D7:70:B0:18:73:1C

            X509v3 Basic Constraints: 
                CA:FALSE
            X509v3 Key Usage: 
                Digital Signature, Key Encipherment
            X509v3 Subject Alternative Name: 
                DNS:localhost, IP Address:127.0.0.1, IP Address:0:0:0:0:0:0:0:1
            Netscape Comment: 
                OpenSSL Generated Certificate
    Signature Algorithm: sha256WithRSAEncryption
         7d:7b:8b:a8:8f:60:bb:7e:e6:e4:49:d2:76:b3:02:52:44:28:
         e7:f0:fb:b7:da:e4:bf:b6:19:4b:ba:e0:37:ab:28:d0:ef:70:
         7b:9b:6c:08:70:e6:fb:43:80:d7:e3:fa:90:d9:d4:cb:02:32:
         c1:d7:a9:e6:90:02:ee:89:40:5f:2a:1d:28:a7:6c:68:5a:80:
         7a:db:50:e7:51:89:d4:fe:f8:16:3a:56:3b:44:e5:c6:c4:72:
         ef:d4:06:70:d4:ac:b1:40:55:0d:00:4c:5d:40:75:52:fe:cf:
         44:14:25:f1:ae:ea:17:7a:f6:16:fb:58:db:48:a0:a7:76:d4:
         b7:22:f4:93:ec:fd:b1:9c:28:e5:d6:98:7c:0b:f1:e2:aa:c6:
         a7:b0:63:5b:cb:27:58:ad:25:ca:85:fe:96:f7:fe:ca:03:6a:
         b0:4e:0e:d5:bc:ac:2a:c4:2c:c7:df:65:1c:c7:29:e2:57:1b:
         2d:bb:9c:ad:cc:c4:75:3f:72:33:ad:b2:ee:2d:be:8a:18:3a:
         c2:d7:d1:a7:7f:17:11:88:35:8d:dc:0b:7c:11:93:60:f6:db:
         39:ce:35:1f:b2:7b:d1:2e:d9:80:d7:36:64:bf:77:89:8f:1b:
         c6:76:86:b0:0f:bb:64:f2:75:02:c4:a9:60:c4:4a:e9:60:02:
         ec:f0:cb:38:f5:12:7c:64:06:46:d0:20:bb:0a:00:43:ee:10:
         ef:a4:19:e6:63:ca:7f:4b:8d:18:6e:ed:f5:a2:8e:26:0d:7f:
         28:9e:3c:56:5f:3a:bf:9d:de:3c:fc:92:52:2f:57:51:01:88:
         50:1e:03:fb:cb:66:74:d8:36:96:0c:a3:e9:de:3d:50:81:05:
         6f:22:1f:78:41:20:67:09:0f:8f:25:3d:aa:67:65:5f:33:05:
         ef:a9:f5:df:c1:13:9f:c6:29:cc:c6:b5:22:05:11:29:51:88:
         d0:33:59:5e:50:6a:a5:f6:5d:74:3e:c4:a8:f9:91:fb:1d:93:
         15:dc:b3:29:a6:96:ed:c5:7d:63:2d:c5:b7:ea:ba:3c:a3:03:
         96:9a:6f:b0:6f:52:70:33:c9:8c:6e:20:08:7d:1a:98:c8:1c:
         04:ba:09:4a:a6:6e:12:7b:67:81:c8:43:ac:8f:74:ee:45:b8:
         8c:e0:24:82:cc:1c:c7:c3:ea:2f:d1:90:54:15:4e:72:48:35:
         9c:9d:ce:27:52:6b:5b:30:31:f2:98:99:a5:69:2d:90:e5:98:
         e7:f7:51:0f:d4:3e:8f:3c:ea:38:fd:5a:0d:1d:72:fc:40:8f:
         92:f8:17:fb:24:2e:82:01:bd:eb:8d:74:e7:a2:bd:fb:d2:47:
         c8:04:eb:c6:b5:be:5a:62
-----BEGIN CERTIFICATE-----
MIIFFzCCAv+gAwIBAgIBAzANBgkqhkiG9w0BAQsFADB1MQswCQYDVQQGEwJCRTER
MA8GA1UECAwIQnJ1c3NlbHMxETAPBgNVBAcMCEJydXNzZWxzMQswCQYDVQQKDAJD
QTEMMAoGA1UECwwDVlVCMQswCQYDVQQDDAJDQTEYMBYGCSqGSIb3DQEJARYJY2FA
dnViLmJlMB4XDTE3MDUwNzEzMzkzN1oXDTIwMDIwMTEzMzkzN1owbzELMAkGA1UE
BhMCQkUxETAPBgNVBAgMCEJydXNzZWxzMREwDwYDVQQHDAhCcnVzc2VsczEMMAoG
A1UECgwDVlVCMRYwFAYDVQQDDA1TVFVERU5UUE9SVEFMMRQwEgYKCZImiZPyLGQE
DQwEZUdvdjCCASIwDQYJKoZIhvcNAQEBBQADggEPADCCAQoCggEBALBVDdyVIuCz
XIeaK6pPvcBMS08LJu+NxeF+oTie6sbP4hlBDOLqj/gvNre4QoKeogxKGA+pWE6T
VAmYOIVNWLsc77I4sqKY6AMoyO04tAP58+xRHgv7kFMldNq2qZXbnvj1Vpkp41ve
pX9fzsljHEVFri1nntgqa/ZBfJ2Q/oQyWCp1jO0kEVGIx5XEC2pCaPkqCUD3oGKG
JqznYVM2HyS7YwJKqLzz9RLG09P5nwXjwjJbgetrypwGChiuo0/RKaDMZCZDU6ZY
go3aD9jpFx+Ey/uAoQ88ACzQd1luT5g/55TZxf/hGBM4tMQcbJlH96uHVzo/7M/b
AoXa4b9OklsCAwEAAaOBtzCBtDAdBgNVHQ4EFgQUr1uFJLfI0OPWaQ3zhFJJOYBH
QgEwHwYDVR0jBBgwFoAUxYYAvP9NjiyZi1ISeKDXcLAYcxwwCQYDVR0TBAIwADAL
BgNVHQ8EBAMCBaAwLAYDVR0RBCUwI4IJbG9jYWxob3N0hwR/AAABhxAAAAAAAAAA
AAAAAAAAAAABMCwGCWCGSAGG+EIBDQQfFh1PcGVuU1NMIEdlbmVyYXRlZCBDZXJ0
aWZpY2F0ZTANBgkqhkiG9w0BAQsFAAOCAgEAfXuLqI9gu37m5EnSdrMCUkQo5/D7
t9rkv7YZS7rgN6so0O9we5tsCHDm+0OA1+P6kNnUywIywdep5pAC7olAXyodKKds
aFqAettQ51GJ1P74FjpWO0TlxsRy79QGcNSssUBVDQBMXUB1Uv7PRBQl8a7qF3r2
FvtY20igp3bUtyL0k+z9sZwo5daYfAvx4qrGp7BjW8snWK0lyoX+lvf+ygNqsE4O
1bysKsQsx99lHMcp4lcbLbucrczEdT9yM62y7i2+ihg6wtfRp38XEYg1jdwLfBGT
YPbbOc41H7J70S7ZgNc2ZL93iY8bxnaGsA+7ZPJ1AsSpYMRK6WAC7PDLOPUSfGQG
RtAguwoAQ+4Q76QZ5mPKf0uNGG7t9aKOJg1/KJ48Vl86v53ePPySUi9XUQGIUB4D
+8tmdNg2lgyj6d49UIEFbyIfeEEgZwkPjyU9qmdlXzMF76n138ETn8YpzMa1IgUR
KVGI0DNZXlBqpfZddD7EqPmR+x2TFdyzKaaW7cV9Yy3Ft+q6PKMDlppvsG9ScDPJ
jG4gCH0amMgcBLoJSqZuEntngchDrI907kW4jOAkgswcx8PqL9GQVBVOckg1nJ3O
J1JrWzAx8piZpWktkOWY5/dRD9Q+jzzqOP1aDR1y/ECPkvgX+yQuggG9641056K9
+9JHyATrxrW+WmI=
-----END CERTIFICATE-----
