Certificate:
    Data:
        Version: 3 (0x2)
        Serial Number: 5 (0x5)
    Signature Algorithm: sha256WithRSAEncryption
        Issuer: C=BE, ST=Brussels, L=Brussels, O=CA, OU=VUB, CN=CA/emailAddress=ca@vub.be
        Validity
            Not Before: May  7 14:00:17 2017 GMT
            Not After : Feb  1 14:00:17 2020 GMT
        Subject: C=BE, ST=Brussels, L=Brussels, O=VUB, CN=COLRUYT/domain=SuperMarket
        Subject Public Key Info:
            Public Key Algorithm: rsaEncryption
                Public-Key: (2048 bit)
                Modulus:
                    00:c3:15:9e:6e:90:f4:dd:8a:15:37:eb:06:b4:45:
                    4d:7d:21:10:2a:91:44:f7:45:64:5f:77:4b:a2:d3:
                    4e:9f:ee:d0:e5:71:00:01:aa:0f:99:25:5f:d7:97:
                    13:27:93:c6:cf:50:61:d5:11:23:06:a4:2b:d6:b8:
                    65:2d:db:6b:ac:87:58:61:4b:d5:00:25:f6:34:61:
                    20:a2:4e:f1:a4:87:81:1c:0f:5e:69:79:00:79:41:
                    53:52:98:b1:66:cf:5c:d1:1e:ae:40:e8:bb:0c:51:
                    22:18:32:33:d5:7f:f3:25:a9:da:00:5e:dd:72:e6:
                    b7:84:82:62:88:bd:f2:99:3b:10:c1:ec:80:f3:a6:
                    f4:2e:3c:fb:59:64:cf:42:51:0b:d4:67:b5:72:b5:
                    77:e3:2f:bf:c7:7d:aa:6b:08:7e:df:f1:52:ed:9f:
                    cc:0e:a7:c5:6f:f5:79:a0:06:ee:a9:2b:c1:66:e5:
                    c0:64:d8:9f:bb:d5:14:85:2a:58:43:d6:71:c4:83:
                    34:da:48:56:7c:59:58:e6:60:11:9b:45:19:95:f2:
                    98:45:d9:28:5b:78:da:25:4d:d0:cc:cd:fc:50:f6:
                    8c:57:db:5a:d0:90:f9:b4:11:f5:00:63:df:a8:43:
                    11:cc:39:2b:b1:62:aa:eb:ca:7f:af:7d:cd:b0:ea:
                    e7:59
                Exponent: 65537 (0x10001)
        X509v3 extensions:
            X509v3 Subject Key Identifier: 
                D6:5D:65:19:62:BA:4B:70:A8:6C:85:45:4C:88:E6:F8:C4:55:C1:4F
            X509v3 Authority Key Identifier: 
                keyid:C5:86:00:BC:FF:4D:8E:2C:99:8B:52:12:78:A0:D7:70:B0:18:73:1C

            X509v3 Basic Constraints: 
                CA:FALSE
            X509v3 Key Usage: 
                Digital Signature, Key Encipherment
            X509v3 Subject Alternative Name: 
                DNS:localhost, IP Address:127.0.0.1, IP Address:0:0:0:0:0:0:0:1
            Netscape Comment: 
                OpenSSL Generated Certificate
    Signature Algorithm: sha256WithRSAEncryption
         5e:cc:8d:d9:f2:c4:f5:8c:48:47:f2:06:0b:27:87:e2:69:65:
         f8:a6:71:7a:30:a6:b0:f2:c4:d5:e0:9f:1e:56:55:68:9c:f5:
         79:41:3a:78:42:e5:55:fb:6e:cf:a6:03:ab:4e:78:80:35:a4:
         83:ab:b6:a3:ce:d5:cc:ad:c6:6d:04:73:af:08:93:b3:83:e8:
         74:60:87:9d:92:f6:61:d4:68:2e:83:eb:c5:9f:f6:7c:bf:0e:
         d8:89:c7:b5:a6:ce:33:13:e4:a2:83:3c:1a:28:9e:40:be:b9:
         18:0d:2d:bb:5e:97:cb:31:6e:ff:29:05:ee:42:78:62:41:c5:
         b5:f2:8d:7e:96:9d:1b:af:c6:73:0e:d3:95:84:de:89:75:67:
         1f:c8:fb:0b:06:9b:ca:4d:e8:57:b1:a5:cd:29:94:e6:88:b9:
         c4:5d:9d:25:d1:46:06:d4:4f:44:83:ce:8e:14:f1:33:36:3a:
         40:30:62:a6:db:c3:ec:27:7a:6a:1f:21:69:5b:f3:cd:5c:75:
         7e:e7:da:e8:43:bc:99:e9:e8:4b:59:f2:12:a0:dd:3e:10:0a:
         30:8d:3c:91:ea:4e:6e:60:83:06:e2:3f:0e:b4:9e:f4:59:81:
         a4:e8:fd:19:42:95:6b:ea:7f:38:8d:9a:8a:87:43:3d:da:a8:
         8d:90:03:fa:07:d6:c0:bf:b9:bc:ac:25:4f:8d:27:74:4e:c4:
         c5:c0:99:52:f7:89:92:6e:9c:6c:00:81:72:c6:d1:b6:90:a0:
         6c:6b:7c:e4:99:79:1b:e3:1a:81:32:95:e0:44:b5:88:9b:87:
         c7:34:ff:85:a9:90:86:6d:d4:38:38:e6:bc:ec:00:b8:a6:11:
         03:a8:c3:e2:02:8b:04:87:8d:22:6f:73:70:7d:51:2c:dc:2b:
         df:c6:4f:ec:d4:c2:45:b5:8b:a4:53:a2:5d:98:04:a1:a4:af:
         7b:9a:13:76:48:ed:91:dc:91:ce:66:90:73:f0:01:0b:31:0b:
         f3:bf:38:5c:cc:37:b5:71:7d:31:40:ea:d8:b6:f5:f2:7a:16:
         c2:1b:f8:d8:f4:bd:ef:26:28:1c:1a:89:6f:97:7c:9a:17:4a:
         6a:13:ae:60:44:72:24:27:1c:1e:73:61:65:e0:f7:c0:11:0e:
         71:88:09:5b:31:89:2c:94:1d:32:68:7e:03:7e:e8:95:91:a6:
         b3:19:58:f2:2e:32:7d:b2:e8:80:13:b2:b2:fc:c7:5d:f6:d8:
         4a:1b:af:a7:07:b6:92:43:e9:fd:47:a9:5e:72:0a:88:aa:c0:
         f4:ca:fb:2b:68:99:61:51:1c:52:c6:da:bb:17:d4:1a:18:35:
         ed:d8:3f:a9:a9:93:b5:55
-----BEGIN CERTIFICATE-----
MIIFGDCCAwCgAwIBAgIBBTANBgkqhkiG9w0BAQsFADB1MQswCQYDVQQGEwJCRTER
MA8GA1UECAwIQnJ1c3NlbHMxETAPBgNVBAcMCEJydXNzZWxzMQswCQYDVQQKDAJD
QTEMMAoGA1UECwwDVlVCMQswCQYDVQQDDAJDQTEYMBYGCSqGSIb3DQEJARYJY2FA
dnViLmJlMB4XDTE3MDUwNzE0MDAxN1oXDTIwMDIwMTE0MDAxN1owcDELMAkGA1UE
BhMCQkUxETAPBgNVBAgMCEJydXNzZWxzMREwDwYDVQQHDAhCcnVzc2VsczEMMAoG
A1UECgwDVlVCMRAwDgYDVQQDDAdDT0xSVVlUMRswGQYKCZImiZPyLGQEDQwLU3Vw
ZXJNYXJrZXQwggEiMA0GCSqGSIb3DQEBAQUAA4IBDwAwggEKAoIBAQDDFZ5ukPTd
ihU36wa0RU19IRAqkUT3RWRfd0ui006f7tDlcQABqg+ZJV/XlxMnk8bPUGHVESMG
pCvWuGUt22ush1hhS9UAJfY0YSCiTvGkh4EcD15peQB5QVNSmLFmz1zRHq5A6LsM
USIYMjPVf/MlqdoAXt1y5reEgmKIvfKZOxDB7IDzpvQuPPtZZM9CUQvUZ7VytXfj
L7/HfaprCH7f8VLtn8wOp8Vv9XmgBu6pK8Fm5cBk2J+71RSFKlhD1nHEgzTaSFZ8
WVjmYBGbRRmV8phF2ShbeNolTdDMzfxQ9oxX21rQkPm0EfUAY9+oQxHMOSuxYqrr
yn+vfc2w6udZAgMBAAGjgbcwgbQwHQYDVR0OBBYEFNZdZRliuktwqGyFRUyI5vjE
VcFPMB8GA1UdIwQYMBaAFMWGALz/TY4smYtSEnig13CwGHMcMAkGA1UdEwQCMAAw
CwYDVR0PBAQDAgWgMCwGA1UdEQQlMCOCCWxvY2FsaG9zdIcEfwAAAYcQAAAAAAAA
AAAAAAAAAAAAATAsBglghkgBhvhCAQ0EHxYdT3BlblNTTCBHZW5lcmF0ZWQgQ2Vy
dGlmaWNhdGUwDQYJKoZIhvcNAQELBQADggIBAF7MjdnyxPWMSEfyBgsnh+JpZfim
cXowprDyxNXgnx5WVWic9XlBOnhC5VX7bs+mA6tOeIA1pIOrtqPO1cytxm0Ec68I
k7OD6HRgh52S9mHUaC6D68Wf9ny/DtiJx7WmzjMT5KKDPBoonkC+uRgNLbtel8sx
bv8pBe5CeGJBxbXyjX6WnRuvxnMO05WE3ol1Zx/I+wsGm8pN6Fexpc0plOaIucRd
nSXRRgbUT0SDzo4U8TM2OkAwYqbbw+wnemofIWlb881cdX7n2uhDvJnp6EtZ8hKg
3T4QCjCNPJHqTm5ggwbiPw60nvRZgaTo/RlClWvqfziNmoqHQz3aqI2QA/oH1sC/
ubysJU+NJ3ROxMXAmVL3iZJunGwAgXLG0baQoGxrfOSZeRvjGoEyleBEtYibh8c0
/4WpkIZt1Dg45rzsALimEQOow+ICiwSHjSJvc3B9USzcK9/GT+zUwkW1i6RTol2Y
BKGkr3uaE3ZI7ZHckc5mkHPwAQsxC/O/OFzMN7VxfTFA6ti29fJ6FsIb+Nj0ve8m
KBwaiW+XfJoXSmoTrmBEciQnHB5zYWXg98ARDnGICVsxiSyUHTJofgN+6JWRprMZ
WPIuMn2y6IATsrL8x1322Eobr6cHtpJD6f1HqV5yCoiqwPTK+ytomWFRHFLG2rsX
1BoYNe3YP6mpk7VV
-----END CERTIFICATE-----
