Certificate:
    Data:
        Version: 3 (0x2)
        Serial Number: 6 (0x6)
    Signature Algorithm: sha256WithRSAEncryption
        Issuer: C=BE, ST=Brussels, L=Brussels, O=CA, OU=VUB, CN=CA/emailAddress=ca@vub.be
        Validity
            Not Before: May  7 14:00:42 2017 GMT
            Not After : Feb  1 14:00:42 2020 GMT
        Subject: C=BE, ST=Brussels, L=Brussels, O=VUB, CN=DELHAIZE/domain=SuperMarket
        Subject Public Key Info:
            Public Key Algorithm: rsaEncryption
                Public-Key: (2048 bit)
                Modulus:
                    00:a2:ec:87:17:1e:c9:6e:d3:ff:78:37:96:ef:c7:
                    aa:c5:e5:e2:dd:e8:2a:80:f3:80:33:ab:a6:d7:3b:
                    84:79:a6:06:67:89:0a:a0:67:b3:ed:1a:c1:33:c7:
                    6e:d3:a9:bd:16:cb:5d:aa:32:69:cc:50:c7:34:87:
                    44:63:cf:d6:e5:51:58:95:6b:32:42:7b:83:29:45:
                    28:1a:76:cf:75:21:7f:2c:67:bc:52:c2:8b:c8:c8:
                    1c:61:81:74:69:4e:53:f0:06:bc:03:56:2c:ea:2d:
                    56:89:a5:2c:41:80:2d:7e:46:a3:16:ec:54:a2:a4:
                    14:dc:33:f3:76:8c:d6:07:10:e4:42:75:1f:17:7e:
                    6a:b0:d1:12:e6:50:8c:8c:6a:ca:58:a4:9d:ac:73:
                    cd:bc:46:64:cf:1e:08:75:be:6a:c5:8a:2e:13:84:
                    4d:6d:49:fe:d9:e5:6e:b7:80:98:96:f3:bc:3b:a9:
                    d5:b1:0a:4e:06:12:b1:89:7e:73:25:45:bc:bb:5b:
                    df:0b:0d:f9:2a:c1:d0:f4:0c:72:1d:ce:6d:8f:48:
                    71:54:bb:a2:e9:c9:fe:18:52:e6:e7:82:4f:8c:e6:
                    83:25:8f:cc:ef:26:de:e7:cc:b3:5d:e3:d3:6b:21:
                    ec:1a:f5:dc:3c:cd:63:bc:52:c8:af:7e:13:9a:6c:
                    46:8f
                Exponent: 65537 (0x10001)
        X509v3 extensions:
            X509v3 Subject Key Identifier: 
                58:C2:24:B4:E9:1B:DD:BF:77:66:A8:59:26:57:48:5E:90:F3:5A:74
            X509v3 Authority Key Identifier: 
                keyid:C5:86:00:BC:FF:4D:8E:2C:99:8B:52:12:78:A0:D7:70:B0:18:73:1C

            X509v3 Basic Constraints: 
                CA:FALSE
            X509v3 Key Usage: 
                Digital Signature, Key Encipherment
            X509v3 Subject Alternative Name: 
                DNS:localhost, IP Address:127.0.0.1, IP Address:0:0:0:0:0:0:0:1
            Netscape Comment: 
                OpenSSL Generated Certificate
    Signature Algorithm: sha256WithRSAEncryption
         1e:7d:3b:08:65:1d:d0:71:f0:e0:6a:4b:83:a8:8e:37:7a:4b:
         48:60:c0:51:59:e1:04:e5:57:54:aa:44:c2:f1:83:0d:cd:22:
         12:44:08:e6:a4:ba:a7:05:0b:b5:ff:b2:49:cf:0e:4c:a7:03:
         18:da:ba:79:65:99:30:0b:ef:22:58:2b:66:4e:86:18:a4:72:
         81:46:36:8c:ca:7a:f0:69:b0:b1:1d:6c:76:f1:53:3e:f6:e7:
         92:cc:67:f9:9f:d9:0d:95:fe:4a:9e:c0:11:eb:9e:03:9f:7e:
         e9:e7:84:10:15:f7:41:2a:19:52:5b:58:e9:88:57:1d:6f:03:
         a0:53:00:0b:3e:7a:84:40:a0:30:66:c1:8b:75:07:05:d5:f1:
         5f:72:b8:5a:ff:4c:ef:f6:44:62:81:fb:9d:52:6d:f3:7a:0f:
         3d:4d:8d:8c:9e:83:1c:68:f7:13:08:c1:53:ce:6b:76:81:19:
         49:a3:3d:91:0c:d6:af:68:74:08:8b:4a:27:a4:06:44:1e:78:
         8a:35:ab:e6:46:76:93:0d:a6:08:f4:0d:8d:92:9a:51:bc:92:
         9f:f5:d1:91:54:3d:f3:35:16:f8:8d:07:ed:5e:cc:03:05:bc:
         54:c7:6a:d6:ab:02:b6:2d:14:c2:c4:2c:57:f6:e7:09:bc:e8:
         be:aa:88:13:d5:f8:60:ab:9f:22:27:b6:0f:b9:94:85:b3:3d:
         0f:77:6d:4c:1f:c4:7c:8d:11:89:98:fb:a7:47:6f:72:ad:ef:
         27:e0:d2:0f:c9:13:7e:23:de:8c:c0:ba:aa:f1:fe:df:2b:bb:
         a5:e5:09:81:4f:ad:56:5e:1d:3b:1d:09:0c:bc:fe:0f:d8:60:
         89:7f:d7:5c:0a:14:31:23:4c:24:b0:79:02:55:c3:80:16:67:
         99:00:e0:f6:d7:a9:58:b2:38:9e:62:4b:45:7a:b9:cb:1a:c0:
         c4:bf:6b:bd:04:50:7f:d0:34:93:3f:ef:dd:9c:0e:ec:82:c2:
         5d:5c:70:cb:5c:70:44:3a:93:c2:15:36:5a:e5:79:5b:8d:cd:
         41:6e:eb:be:b3:57:ac:88:98:41:76:65:da:78:8b:a7:be:4b:
         4f:81:49:e0:37:74:1c:f2:75:6c:5e:de:05:66:39:c6:ce:e3:
         72:3f:48:41:9d:d8:28:bf:77:0a:61:dd:2c:d6:19:68:42:1c:
         e1:83:6f:1d:2d:05:72:86:fc:a5:fc:fa:13:cb:98:9e:40:74:
         66:f4:95:01:e2:ca:d1:37:9c:4c:f9:65:ca:f7:20:e2:2e:19:
         f6:12:9c:e0:d4:48:37:52:b0:7f:ce:86:74:5c:a6:f3:bf:5e:
         1c:f0:94:d8:b4:6e:12:d2
-----BEGIN CERTIFICATE-----
MIIFGTCCAwGgAwIBAgIBBjANBgkqhkiG9w0BAQsFADB1MQswCQYDVQQGEwJCRTER
MA8GA1UECAwIQnJ1c3NlbHMxETAPBgNVBAcMCEJydXNzZWxzMQswCQYDVQQKDAJD
QTEMMAoGA1UECwwDVlVCMQswCQYDVQQDDAJDQTEYMBYGCSqGSIb3DQEJARYJY2FA
dnViLmJlMB4XDTE3MDUwNzE0MDA0MloXDTIwMDIwMTE0MDA0MlowcTELMAkGA1UE
BhMCQkUxETAPBgNVBAgMCEJydXNzZWxzMREwDwYDVQQHDAhCcnVzc2VsczEMMAoG
A1UECgwDVlVCMREwDwYDVQQDDAhERUxIQUlaRTEbMBkGCgmSJomT8ixkBA0MC1N1
cGVyTWFya2V0MIIBIjANBgkqhkiG9w0BAQEFAAOCAQ8AMIIBCgKCAQEAouyHFx7J
btP/eDeW78eqxeXi3egqgPOAM6um1zuEeaYGZ4kKoGez7RrBM8du06m9FstdqjJp
zFDHNIdEY8/W5VFYlWsyQnuDKUUoGnbPdSF/LGe8UsKLyMgcYYF0aU5T8Aa8A1Ys
6i1WiaUsQYAtfkajFuxUoqQU3DPzdozWBxDkQnUfF35qsNES5lCMjGrKWKSdrHPN
vEZkzx4Idb5qxYouE4RNbUn+2eVut4CYlvO8O6nVsQpOBhKxiX5zJUW8u1vfCw35
KsHQ9AxyHc5tj0hxVLui6cn+GFLm54JPjOaDJY/M7ybe58yzXePTayHsGvXcPM1j
vFLIr34TmmxGjwIDAQABo4G3MIG0MB0GA1UdDgQWBBRYwiS06Rvdv3dmqFkmV0he
kPNadDAfBgNVHSMEGDAWgBTFhgC8/02OLJmLUhJ4oNdwsBhzHDAJBgNVHRMEAjAA
MAsGA1UdDwQEAwIFoDAsBgNVHREEJTAjgglsb2NhbGhvc3SHBH8AAAGHEAAAAAAA
AAAAAAAAAAAAAAEwLAYJYIZIAYb4QgENBB8WHU9wZW5TU0wgR2VuZXJhdGVkIENl
cnRpZmljYXRlMA0GCSqGSIb3DQEBCwUAA4ICAQAefTsIZR3QcfDgakuDqI43ektI
YMBRWeEE5VdUqkTC8YMNzSISRAjmpLqnBQu1/7JJzw5MpwMY2rp5ZZkwC+8iWCtm
ToYYpHKBRjaMynrwabCxHWx28VM+9ueSzGf5n9kNlf5KnsAR654Dn37p54QQFfdB
KhlSW1jpiFcdbwOgUwALPnqEQKAwZsGLdQcF1fFfcrha/0zv9kRigfudUm3zeg89
TY2MnoMcaPcTCMFTzmt2gRlJoz2RDNavaHQIi0onpAZEHniKNavmRnaTDaYI9A2N
kppRvJKf9dGRVD3zNRb4jQftXswDBbxUx2rWqwK2LRTCxCxX9ucJvOi+qogT1fhg
q58iJ7YPuZSFsz0Pd21MH8R8jRGJmPunR29yre8n4NIPyRN+I96MwLqq8f7fK7ul
5QmBT61WXh07HQkMvP4P2GCJf9dcChQxI0wksHkCVcOAFmeZAOD216lYsjieYktF
ernLGsDEv2u9BFB/0DSTP+/dnA7sgsJdXHDLXHBEOpPCFTZa5Xlbjc1Bbuu+s1es
iJhBdmXaeIunvktPgUngN3Qc8nVsXt4FZjnGzuNyP0hBndgov3cKYd0s1hloQhzh
g28dLQVyhvyl/PoTy5ieQHRm9JUB4srRN5xM+WXK9yDiLhn2Epzg1Eg3UrB/zoZ0
XKbzv14c8JTYtG4S0g==
-----END CERTIFICATE-----
