Certificate:
    Data:
        Version: 3 (0x2)
        Serial Number: 7 (0x7)
    Signature Algorithm: sha256WithRSAEncryption
        Issuer: C=BE, ST=Brussels, L=Brussels, O=CA, OU=VUB, CN=CA/emailAddress=ca@vub.be
        Validity
            Not Before: May  7 14:01:06 2017 GMT
            Not After : Feb  1 14:01:06 2020 GMT
        Subject: C=BE, ST=Brussels, L=Brussels, O=VUB, CN=KINEPOLIS/domain=default
        Subject Public Key Info:
            Public Key Algorithm: rsaEncryption
                Public-Key: (2048 bit)
                Modulus:
                    00:da:96:af:44:59:34:e6:19:bd:9d:37:12:d6:66:
                    d7:7a:60:b1:82:77:31:ca:aa:00:d7:ec:82:20:2c:
                    20:78:b6:aa:4c:f3:b7:84:8c:0e:fa:84:2b:43:5c:
                    28:c3:2e:51:d7:d2:81:e0:f2:7f:76:42:1e:2b:c5:
                    f3:59:66:01:6c:b3:06:55:82:32:fc:74:a1:53:f9:
                    8f:2f:7d:3a:28:52:cb:cb:8f:30:da:f3:cb:ab:5b:
                    23:44:6b:2a:aa:09:45:e3:cc:df:bb:4b:28:91:a9:
                    a5:54:cd:f7:63:86:1a:21:9c:3d:e8:e0:d4:dc:79:
                    57:a1:21:a6:26:21:ba:c1:2b:8b:79:e0:55:b8:33:
                    ce:e6:0c:ae:2f:52:7d:1c:0e:a1:77:07:b5:83:9b:
                    e4:31:98:e3:02:16:74:92:b1:1c:39:80:d9:7d:23:
                    b8:2c:2d:f5:e5:1d:b2:78:be:22:34:a9:26:36:0c:
                    f5:61:9a:83:c4:2c:71:5f:21:e1:3e:1a:8f:bc:d5:
                    83:14:3f:3a:19:19:00:ec:0a:4f:54:13:61:03:8d:
                    64:10:1f:12:65:86:96:40:50:d6:31:66:c8:1c:07:
                    26:77:20:69:ae:4a:f0:f0:7b:e0:80:72:0d:a5:ed:
                    23:cb:d2:d4:98:39:f4:a1:eb:c9:26:aa:42:48:5d:
                    5b:8d
                Exponent: 65537 (0x10001)
        X509v3 extensions:
            X509v3 Subject Key Identifier: 
                5B:4F:DE:A3:B3:07:0C:FE:16:30:64:2F:C9:F3:6E:DA:14:71:39:B0
            X509v3 Authority Key Identifier: 
                keyid:C5:86:00:BC:FF:4D:8E:2C:99:8B:52:12:78:A0:D7:70:B0:18:73:1C

            X509v3 Basic Constraints: 
                CA:FALSE
            X509v3 Key Usage: 
                Digital Signature, Key Encipherment
            X509v3 Subject Alternative Name: 
                DNS:localhost, IP Address:127.0.0.1, IP Address:0:0:0:0:0:0:0:1
            Netscape Comment: 
                OpenSSL Generated Certificate
    Signature Algorithm: sha256WithRSAEncryption
         8f:86:7a:9c:c9:ba:2f:43:9d:5e:df:9e:e5:bf:be:2d:3b:18:
         64:90:e6:b9:17:0c:54:9d:ce:35:6e:32:94:62:ee:e0:a0:db:
         ee:e1:f7:dd:bb:35:b4:53:03:b0:96:25:f9:51:f4:ed:6f:f1:
         c1:1a:89:a6:3c:ba:5a:23:56:a6:fa:f4:87:53:84:a6:a5:61:
         65:ed:44:cf:64:cf:02:75:f6:ce:73:a0:f3:ff:de:34:0b:f7:
         12:13:39:28:fd:b1:6c:16:1b:f5:58:58:4b:9f:0d:6a:90:7d:
         3d:75:3e:08:3b:a6:5c:e6:e6:39:72:1f:88:9f:63:90:02:3a:
         07:1e:b7:70:41:3c:5d:5a:b5:8c:86:2c:93:50:64:b6:13:2f:
         24:90:66:1f:04:6c:69:5a:3d:18:ed:60:6e:b1:60:aa:4d:ad:
         fd:01:56:9e:d7:cc:79:3c:8d:0c:ad:8c:14:05:37:ea:4a:1d:
         de:88:22:52:b5:fc:e3:a1:cc:cc:d8:bd:18:4c:4b:20:d3:aa:
         ff:f9:f3:6f:ce:6d:b8:e0:28:f2:2f:67:cf:0e:d3:aa:5b:d6:
         63:a1:80:65:7c:07:58:04:1c:f2:47:36:a5:12:4e:af:0a:c7:
         91:1f:fa:6c:96:1a:f9:1c:68:db:53:58:ee:55:8f:20:4c:a6:
         ad:a1:54:07:a6:25:20:68:24:0b:40:09:64:e7:d1:eb:34:e9:
         a3:51:22:27:e1:71:5e:7a:70:b6:70:b8:5b:1e:23:61:54:f6:
         b1:10:97:2c:cd:2d:ec:09:03:d7:b2:48:60:3d:54:67:89:14:
         24:b4:ff:6b:b5:51:0e:ac:30:f9:6c:25:11:fc:98:0a:60:18:
         39:09:1a:3b:73:ec:5b:77:f6:fa:bb:4b:4d:81:b1:19:78:f5:
         e9:10:a2:3a:0f:3f:60:bb:c4:57:78:52:56:cf:73:12:37:a1:
         3d:13:eb:d2:97:25:6d:49:d7:ea:3b:71:76:5c:5b:ce:87:16:
         96:46:dc:70:7d:47:a8:17:e5:88:59:5e:15:2c:4f:54:d1:9f:
         72:45:c1:fd:56:85:a2:92:dc:57:ba:04:15:29:3d:05:96:c4:
         cf:ca:87:26:16:5c:cb:64:be:d2:cd:73:10:9c:a1:6d:ca:3b:
         af:e2:b2:8b:ee:e4:e5:da:07:34:77:8a:a5:01:e1:f2:89:22:
         b7:2b:25:2e:5e:ad:e1:a3:38:1c:30:1a:e4:a8:ed:10:5c:a7:
         80:87:6a:be:db:81:cf:f4:b6:b5:01:a2:5a:72:82:88:cd:4e:
         25:31:ad:e8:9d:b5:b6:7f:4e:2c:ce:b6:ba:70:11:66:84:8b:
         0f:c4:25:4a:60:55:46:f8
-----BEGIN CERTIFICATE-----
MIIFFjCCAv6gAwIBAgIBBzANBgkqhkiG9w0BAQsFADB1MQswCQYDVQQGEwJCRTER
MA8GA1UECAwIQnJ1c3NlbHMxETAPBgNVBAcMCEJydXNzZWxzMQswCQYDVQQKDAJD
QTEMMAoGA1UECwwDVlVCMQswCQYDVQQDDAJDQTEYMBYGCSqGSIb3DQEJARYJY2FA
dnViLmJlMB4XDTE3MDUwNzE0MDEwNloXDTIwMDIwMTE0MDEwNlowbjELMAkGA1UE
BhMCQkUxETAPBgNVBAgMCEJydXNzZWxzMREwDwYDVQQHDAhCcnVzc2VsczEMMAoG
A1UECgwDVlVCMRIwEAYDVQQDDAlLSU5FUE9MSVMxFzAVBgoJkiaJk/IsZAQNDAdk
ZWZhdWx0MIIBIjANBgkqhkiG9w0BAQEFAAOCAQ8AMIIBCgKCAQEA2pavRFk05hm9
nTcS1mbXemCxgncxyqoA1+yCICwgeLaqTPO3hIwO+oQrQ1wowy5R19KB4PJ/dkIe
K8XzWWYBbLMGVYIy/HShU/mPL306KFLLy48w2vPLq1sjRGsqqglF48zfu0sokaml
VM33Y4YaIZw96ODU3HlXoSGmJiG6wSuLeeBVuDPO5gyuL1J9HA6hdwe1g5vkMZjj
AhZ0krEcOYDZfSO4LC315R2yeL4iNKkmNgz1YZqDxCxxXyHhPhqPvNWDFD86GRkA
7ApPVBNhA41kEB8SZYaWQFDWMWbIHAcmdyBprkrw8HvggHINpe0jy9LUmDn0oevJ
JqpCSF1bjQIDAQABo4G3MIG0MB0GA1UdDgQWBBRbT96jswcM/hYwZC/J827aFHE5
sDAfBgNVHSMEGDAWgBTFhgC8/02OLJmLUhJ4oNdwsBhzHDAJBgNVHRMEAjAAMAsG
A1UdDwQEAwIFoDAsBgNVHREEJTAjgglsb2NhbGhvc3SHBH8AAAGHEAAAAAAAAAAA
AAAAAAAAAAEwLAYJYIZIAYb4QgENBB8WHU9wZW5TU0wgR2VuZXJhdGVkIENlcnRp
ZmljYXRlMA0GCSqGSIb3DQEBCwUAA4ICAQCPhnqcybovQ51e357lv74tOxhkkOa5
FwxUnc41bjKUYu7goNvu4ffduzW0UwOwliX5UfTtb/HBGommPLpaI1am+vSHU4Sm
pWFl7UTPZM8CdfbOc6Dz/940C/cSEzko/bFsFhv1WFhLnw1qkH09dT4IO6Zc5uY5
ch+In2OQAjoHHrdwQTxdWrWMhiyTUGS2Ey8kkGYfBGxpWj0Y7WBusWCqTa39AVae
18x5PI0MrYwUBTfqSh3eiCJStfzjoczM2L0YTEsg06r/+fNvzm244CjyL2fPDtOq
W9ZjoYBlfAdYBBzyRzalEk6vCseRH/pslhr5HGjbU1juVY8gTKatoVQHpiUgaCQL
QAlk59HrNOmjUSIn4XFeenC2cLhbHiNhVPaxEJcszS3sCQPXskhgPVRniRQktP9r
tVEOrDD5bCUR/JgKYBg5CRo7c+xbd/b6u0tNgbEZePXpEKI6Dz9gu8RXeFJWz3MS
N6E9E+vSlyVtSdfqO3F2XFvOhxaWRtxwfUeoF+WIWV4VLE9U0Z9yRcH9VoWiktxX
ugQVKT0FlsTPyocmFlzLZL7SzXMQnKFtyjuv4rKL7uTl2gc0d4qlAeHyiSK3KyUu
Xq3hozgcMBrkqO0QXKeAh2q+24HP9La1AaJacoKIzU4lMa3onbW2f04szra6cBFm
hIsPxCVKYFVG+A==
-----END CERTIFICATE-----
