Certificate:
    Data:
        Version: 3 (0x2)
        Serial Number: 8 (0x8)
    Signature Algorithm: sha256WithRSAEncryption
        Issuer: C=BE, ST=Brussels, L=Brussels, O=CA, OU=VUB, CN=CA/emailAddress=ca@vub.be
        Validity
            Not Before: May  7 14:01:27 2017 GMT
            Not After : Feb  1 14:01:27 2020 GMT
        Subject: C=BE, ST=Brussels, L=Brussels, O=VUB, CN=PLANCKENDAEL/domain=default
        Subject Public Key Info:
            Public Key Algorithm: rsaEncryption
                Public-Key: (2048 bit)
                Modulus:
                    00:da:00:9f:f3:c7:d0:0d:52:4c:17:0d:62:94:8f:
                    20:fd:97:79:e1:42:b0:cd:ed:42:d7:78:54:4e:87:
                    b5:0a:3a:8a:48:8f:bd:9d:c4:fd:dc:0b:df:88:04:
                    d7:04:81:25:e6:a9:ea:46:20:6e:e6:ff:35:b7:85:
                    55:2e:14:ef:80:e3:10:5d:95:42:1c:43:e8:20:c1:
                    ea:2e:1a:3b:a7:95:d7:4a:8d:dd:20:f5:c5:f4:f4:
                    38:63:e4:b3:af:aa:34:93:63:46:0c:e1:4c:c5:85:
                    ff:9f:98:f7:94:6e:51:cd:c8:38:32:69:05:f0:6a:
                    0c:db:cd:19:50:02:1f:22:79:b1:63:d8:73:4c:0c:
                    b6:b0:2d:58:3b:6d:73:36:21:41:6f:6d:89:2e:ba:
                    bb:9b:e2:98:78:eb:50:e1:06:e5:54:c5:da:97:8e:
                    35:11:61:06:5b:e9:fa:1b:5c:61:bb:de:31:03:7b:
                    d3:1e:8e:8d:52:ad:d6:90:b7:3d:f6:16:80:04:0b:
                    73:01:72:08:c3:b4:76:fe:62:c3:7f:48:d6:e5:82:
                    2b:a3:7d:69:c0:13:eb:14:d9:2d:55:1b:04:b1:06:
                    01:4f:1d:20:5e:b2:8b:93:b0:22:c6:e4:35:a8:33:
                    4a:3c:fc:1a:cf:6a:97:8c:32:58:5b:7b:d3:78:ac:
                    fe:57
                Exponent: 65537 (0x10001)
        X509v3 extensions:
            X509v3 Subject Key Identifier: 
                36:47:0B:9B:FD:D2:61:83:4E:69:60:31:C0:D4:92:14:7E:46:34:8C
            X509v3 Authority Key Identifier: 
                keyid:C5:86:00:BC:FF:4D:8E:2C:99:8B:52:12:78:A0:D7:70:B0:18:73:1C

            X509v3 Basic Constraints: 
                CA:FALSE
            X509v3 Key Usage: 
                Digital Signature, Key Encipherment
            X509v3 Subject Alternative Name: 
                DNS:localhost, IP Address:127.0.0.1, IP Address:0:0:0:0:0:0:0:1
            Netscape Comment: 
                OpenSSL Generated Certificate
    Signature Algorithm: sha256WithRSAEncryption
         20:2d:6d:3a:4d:d2:b9:8d:ec:7a:d6:f6:09:98:bb:09:ba:7f:
         1d:6a:5d:52:e0:7f:11:0d:64:1e:88:f5:a4:19:29:2a:95:46:
         54:f7:ec:f9:e0:7c:68:c2:c8:d7:32:13:19:d5:78:3c:de:5b:
         7d:70:5c:b6:16:70:fd:6a:05:83:e9:b7:f1:d8:d4:3b:e7:b7:
         91:9c:72:89:b4:da:3c:ea:0e:ae:1f:35:09:fc:b7:f3:ba:ea:
         3c:2e:ae:50:30:ea:a0:f2:65:08:f8:07:f3:ac:b8:f9:56:b9:
         97:b6:1a:46:39:b1:32:b3:9a:6c:84:38:53:18:8f:67:f3:b3:
         ec:30:31:a7:a5:7a:87:63:e7:e5:a0:28:37:e3:83:a5:19:ec:
         18:50:c3:36:f2:2d:f1:03:27:36:bd:be:a8:05:df:66:1c:39:
         27:6f:e9:0d:cb:9d:61:7a:f7:f1:78:35:77:0c:c5:cf:43:81:
         9b:5c:09:86:61:cf:c8:30:1e:21:d4:84:1d:10:6d:36:56:15:
         77:6f:7a:cd:5a:b4:b7:68:db:01:28:35:c9:e3:07:48:0c:3b:
         c1:b5:a0:f2:30:9f:52:a5:be:03:c2:13:3f:07:d9:f6:92:17:
         25:22:b7:de:63:65:65:0d:c1:26:a2:f8:80:43:6d:b3:d6:c1:
         56:30:fc:47:33:94:96:e9:d6:2f:2f:ed:2d:79:06:5f:d4:f2:
         34:43:10:0b:ab:b5:f2:23:0a:5f:17:63:64:5f:83:fb:4d:70:
         03:9d:47:ce:d2:a8:83:d2:4c:a7:4b:83:66:db:35:63:45:bd:
         ca:2b:e8:42:70:89:29:4d:f2:23:a4:a5:a5:17:53:52:ed:7f:
         b2:a4:81:7a:f7:c0:d7:b0:7b:f9:73:84:22:96:cb:52:4c:87:
         5a:fb:3e:b1:27:48:7b:f0:d2:e1:45:8d:bb:cb:7e:b7:fa:6b:
         21:f9:f4:07:1b:a0:0c:9e:46:98:79:0c:d9:0c:bb:b7:e6:ee:
         90:c1:2d:a3:60:b0:76:7f:e2:a2:0f:c7:b8:59:fa:ac:4d:7e:
         a1:75:32:d7:8b:59:66:b2:aa:04:ce:c5:2a:f0:15:13:cb:d0:
         cd:a6:b3:02:e1:19:bc:58:c0:96:65:05:54:02:9a:99:65:a3:
         12:0d:4f:cd:7f:a7:d8:8b:4d:df:4c:e8:00:c7:79:e7:05:b1:
         f5:7e:ad:1d:24:22:34:e9:8e:40:76:eb:4a:81:02:4d:07:e9:
         93:e5:38:aa:17:37:d9:d7:1c:43:31:49:8e:e2:bd:80:18:31:
         b4:7c:90:71:33:1c:9c:c1:e2:45:be:3b:30:84:e2:76:f3:fc:
         9d:74:fc:9a:b2:b7:d8:b5
-----BEGIN CERTIFICATE-----
MIIFGTCCAwGgAwIBAgIBCDANBgkqhkiG9w0BAQsFADB1MQswCQYDVQQGEwJCRTER
MA8GA1UECAwIQnJ1c3NlbHMxETAPBgNVBAcMCEJydXNzZWxzMQswCQYDVQQKDAJD
QTEMMAoGA1UECwwDVlVCMQswCQYDVQQDDAJDQTEYMBYGCSqGSIb3DQEJARYJY2FA
dnViLmJlMB4XDTE3MDUwNzE0MDEyN1oXDTIwMDIwMTE0MDEyN1owcTELMAkGA1UE
BhMCQkUxETAPBgNVBAgMCEJydXNzZWxzMREwDwYDVQQHDAhCcnVzc2VsczEMMAoG
A1UECgwDVlVCMRUwEwYDVQQDDAxQTEFOQ0tFTkRBRUwxFzAVBgoJkiaJk/IsZAQN
DAdkZWZhdWx0MIIBIjANBgkqhkiG9w0BAQEFAAOCAQ8AMIIBCgKCAQEA2gCf88fQ
DVJMFw1ilI8g/Zd54UKwze1C13hUToe1CjqKSI+9ncT93AvfiATXBIEl5qnqRiBu
5v81t4VVLhTvgOMQXZVCHEPoIMHqLho7p5XXSo3dIPXF9PQ4Y+Szr6o0k2NGDOFM
xYX/n5j3lG5Rzcg4MmkF8GoM280ZUAIfInmxY9hzTAy2sC1YO21zNiFBb22JLrq7
m+KYeOtQ4QblVMXal441EWEGW+n6G1xhu94xA3vTHo6NUq3WkLc99haABAtzAXII
w7R2/mLDf0jW5YIro31pwBPrFNktVRsEsQYBTx0gXrKLk7AixuQ1qDNKPPwaz2qX
jDJYW3vTeKz+VwIDAQABo4G3MIG0MB0GA1UdDgQWBBQ2Rwub/dJhg05pYDHA1JIU
fkY0jDAfBgNVHSMEGDAWgBTFhgC8/02OLJmLUhJ4oNdwsBhzHDAJBgNVHRMEAjAA
MAsGA1UdDwQEAwIFoDAsBgNVHREEJTAjgglsb2NhbGhvc3SHBH8AAAGHEAAAAAAA
AAAAAAAAAAAAAAEwLAYJYIZIAYb4QgENBB8WHU9wZW5TU0wgR2VuZXJhdGVkIENl
cnRpZmljYXRlMA0GCSqGSIb3DQEBCwUAA4ICAQAgLW06TdK5jex61vYJmLsJun8d
al1S4H8RDWQeiPWkGSkqlUZU9+z54HxowsjXMhMZ1Xg83lt9cFy2FnD9agWD6bfx
2NQ757eRnHKJtNo86g6uHzUJ/Lfzuuo8Lq5QMOqg8mUI+AfzrLj5VrmXthpGObEy
s5pshDhTGI9n87PsMDGnpXqHY+floCg344OlGewYUMM28i3xAyc2vb6oBd9mHDkn
b+kNy51hevfxeDV3DMXPQ4GbXAmGYc/IMB4h1IQdEG02VhV3b3rNWrS3aNsBKDXJ
4wdIDDvBtaDyMJ9Spb4DwhM/B9n2khclIrfeY2VlDcEmoviAQ22z1sFWMPxHM5SW
6dYvL+0teQZf1PI0QxALq7XyIwpfF2NkX4P7TXADnUfO0qiD0kynS4Nm2zVjRb3K
K+hCcIkpTfIjpKWlF1NS7X+ypIF698DXsHv5c4QilstSTIda+z6xJ0h78NLhRY27
y363+msh+fQHG6AMnkaYeQzZDLu35u6QwS2jYLB2f+KiD8e4WfqsTX6hdTLXi1lm
sqoEzsUq8BUTy9DNprMC4Rm8WMCWZQVUApqZZaMSDU/Nf6fYi03fTOgAx3nnBbH1
fq0dJCI06Y5AdutKgQJNB+mT5TiqFzfZ1xxDMUmO4r2AGDG0fJBxMxycweJFvjsw
hOJ28/yddPyasrfYtQ==
-----END CERTIFICATE-----
