Certificate:
    Data:
        Version: 3 (0x2)
        Serial Number: 8 (0x8)
    Signature Algorithm: sha256WithRSAEncryption
        Issuer: C=BE, ST=Brussels, L=Brussels, O=CA, OU=VUB, CN=CA/emailAddress=ca@vub.be
        Validity
            Not Before: May  7 14:32:50 2017 GMT
            Not After : Feb  1 14:32:50 2020 GMT
        Subject: C=BE, ST=Brussels, L=Brussels, O=VUB, CN=KINEPOLIS/domain=default
        Subject Public Key Info:
            Public Key Algorithm: rsaEncryption
                Public-Key: (512 bit)
                Modulus:
                    00:cf:e6:d5:a3:ca:3f:f3:0b:79:cd:54:56:cd:a9:
                    27:2e:7a:7b:6f:bd:5e:4e:0a:6e:86:95:f8:1b:37:
                    24:4d:94:42:66:0a:3f:29:a6:fe:36:3d:1b:f3:ef:
                    1b:62:ae:e3:00:45:58:24:1c:36:95:19:08:a0:59:
                    40:dd:17:4a:0b
                Exponent: 65537 (0x10001)
        X509v3 extensions:
            X509v3 Subject Key Identifier: 
                0D:25:CB:6A:9B:B4:37:E1:FD:8B:2F:58:E2:01:FD:98:13:A8:0B:5B
            X509v3 Authority Key Identifier: 
                keyid:FA:FF:2F:73:86:E7:AF:24:F4:6E:A5:EA:73:4F:70:3C:D8:E3:40:7B

            X509v3 Basic Constraints: 
                CA:FALSE
            X509v3 Key Usage: 
                Digital Signature, Key Encipherment
            X509v3 Subject Alternative Name: 
                DNS:localhost, IP Address:127.0.0.1, IP Address:0:0:0:0:0:0:0:1
            Netscape Comment: 
                OpenSSL Generated Certificate
    Signature Algorithm: sha256WithRSAEncryption
         b6:1b:17:e2:cd:fe:ee:ed:c5:db:7c:93:4b:6e:7a:a6:5e:6f:
         3f:5e:6e:f9:85:d4:cf:5b:fd:72:49:53:c8:94:39:66:61:b5:
         1a:16:c7:76:30:cc:ca:22:0a:5d:98:f2:02:42:63:30:52:13:
         91:83:46:29:41:10:94:c6:73:6d
-----BEGIN CERTIFICATE-----
MIICjDCCAjagAwIBAgIBCDANBgkqhkiG9w0BAQsFADB1MQswCQYDVQQGEwJCRTER
MA8GA1UECAwIQnJ1c3NlbHMxETAPBgNVBAcMCEJydXNzZWxzMQswCQYDVQQKDAJD
QTEMMAoGA1UECwwDVlVCMQswCQYDVQQDDAJDQTEYMBYGCSqGSIb3DQEJARYJY2FA
dnViLmJlMB4XDTE3MDUwNzE0MzI1MFoXDTIwMDIwMTE0MzI1MFowbjELMAkGA1UE
BhMCQkUxETAPBgNVBAgMCEJydXNzZWxzMREwDwYDVQQHDAhCcnVzc2VsczEMMAoG
A1UECgwDVlVCMRIwEAYDVQQDDAlLSU5FUE9MSVMxFzAVBgoJkiaJk/IsZAQNDAdk
ZWZhdWx0MFwwDQYJKoZIhvcNAQEBBQADSwAwSAJBAM/m1aPKP/MLec1UVs2pJy56
e2+9Xk4KboaV+Bs3JE2UQmYKPymm/jY9G/PvG2Ku4wBFWCQcNpUZCKBZQN0XSgsC
AwEAAaOBtzCBtDAdBgNVHQ4EFgQUDSXLapu0N+H9iy9Y4gH9mBOoC1swHwYDVR0j
BBgwFoAU+v8vc4bnryT0bqXqc09wPNjjQHswCQYDVR0TBAIwADALBgNVHQ8EBAMC
BaAwLAYDVR0RBCUwI4IJbG9jYWxob3N0hwR/AAABhxAAAAAAAAAAAAAAAAAAAAAB
MCwGCWCGSAGG+EIBDQQfFh1PcGVuU1NMIEdlbmVyYXRlZCBDZXJ0aWZpY2F0ZTAN
BgkqhkiG9w0BAQsFAANBALYbF+LN/u7txdt8k0tueqZebz9ebvmF1M9b/XJJU8iU
OWZhtRoWx3YwzMoiCl2Y8gJCYzBSE5GDRilBEJTGc20=
-----END CERTIFICATE-----
