Certificate:
    Data:
        Version: 3 (0x2)
        Serial Number: 9 (0x9)
    Signature Algorithm: sha256WithRSAEncryption
        Issuer: C=BE, ST=Brussels, L=Brussels, O=CA, OU=VUB, CN=CA/emailAddress=ca@vub.be
        Validity
            Not Before: May  7 14:32:58 2017 GMT
            Not After : Feb  1 14:32:58 2020 GMT
        Subject: C=BE, ST=Brussels, L=Brussels, O=VUB, CN=PLANCKENDAEL/domain=default
        Subject Public Key Info:
            Public Key Algorithm: rsaEncryption
                Public-Key: (512 bit)
                Modulus:
                    00:da:1c:d2:a6:ec:b6:87:1c:ec:23:9d:63:e6:e2:
                    5a:bf:3a:d0:c1:63:4c:03:09:36:2e:f0:35:dc:de:
                    c7:ff:19:a2:a7:3f:f2:94:3c:b0:62:73:f0:e6:fe:
                    72:3c:a9:6b:d2:05:f7:db:a0:20:2e:70:e6:31:8c:
                    a9:75:c3:a8:19
                Exponent: 65537 (0x10001)
        X509v3 extensions:
            X509v3 Subject Key Identifier: 
                C4:52:39:C8:86:55:B8:DA:2E:DC:75:38:B1:EB:64:99:0B:C9:6B:4D
            X509v3 Authority Key Identifier: 
                keyid:FA:FF:2F:73:86:E7:AF:24:F4:6E:A5:EA:73:4F:70:3C:D8:E3:40:7B

            X509v3 Basic Constraints: 
                CA:FALSE
            X509v3 Key Usage: 
                Digital Signature, Key Encipherment
            X509v3 Subject Alternative Name: 
                DNS:localhost, IP Address:127.0.0.1, IP Address:0:0:0:0:0:0:0:1
            Netscape Comment: 
                OpenSSL Generated Certificate
    Signature Algorithm: sha256WithRSAEncryption
         7c:20:65:ae:f6:4b:39:7b:cf:e3:ea:96:4e:84:59:70:31:79:
         5b:3f:c4:82:2f:b0:da:55:76:b6:7d:56:b5:af:da:28:83:d8:
         e5:dc:b9:a6:a8:b7:0b:8b:94:02:7a:c9:72:8a:73:fe:f5:f6:
         40:57:cc:9c:e7:67:03:c5:ca:eb
-----BEGIN CERTIFICATE-----
MIICjzCCAjmgAwIBAgIBCTANBgkqhkiG9w0BAQsFADB1MQswCQYDVQQGEwJCRTER
MA8GA1UECAwIQnJ1c3NlbHMxETAPBgNVBAcMCEJydXNzZWxzMQswCQYDVQQKDAJD
QTEMMAoGA1UECwwDVlVCMQswCQYDVQQDDAJDQTEYMBYGCSqGSIb3DQEJARYJY2FA
dnViLmJlMB4XDTE3MDUwNzE0MzI1OFoXDTIwMDIwMTE0MzI1OFowcTELMAkGA1UE
BhMCQkUxETAPBgNVBAgMCEJydXNzZWxzMREwDwYDVQQHDAhCcnVzc2VsczEMMAoG
A1UECgwDVlVCMRUwEwYDVQQDDAxQTEFOQ0tFTkRBRUwxFzAVBgoJkiaJk/IsZAQN
DAdkZWZhdWx0MFwwDQYJKoZIhvcNAQEBBQADSwAwSAJBANoc0qbstocc7COdY+bi
Wr860MFjTAMJNi7wNdzex/8Zoqc/8pQ8sGJz8Ob+cjypa9IF99ugIC5w5jGMqXXD
qBkCAwEAAaOBtzCBtDAdBgNVHQ4EFgQUxFI5yIZVuNou3HU4setkmQvJa00wHwYD
VR0jBBgwFoAU+v8vc4bnryT0bqXqc09wPNjjQHswCQYDVR0TBAIwADALBgNVHQ8E
BAMCBaAwLAYDVR0RBCUwI4IJbG9jYWxob3N0hwR/AAABhxAAAAAAAAAAAAAAAAAA
AAABMCwGCWCGSAGG+EIBDQQfFh1PcGVuU1NMIEdlbmVyYXRlZCBDZXJ0aWZpY2F0
ZTANBgkqhkiG9w0BAQsFAANBAHwgZa72Szl7z+Pqlk6EWXAxeVs/xIIvsNpVdrZ9
VrWv2iiD2OXcuaaotwuLlAJ6yXKKc/719kBXzJznZwPFyus=
-----END CERTIFICATE-----
