Certificate:
    Data:
        Version: 3 (0x2)
        Serial Number: 6 (0x6)
    Signature Algorithm: sha256WithRSAEncryption
        Issuer: C=BE, ST=Brussels, L=Brussels, O=CA, OU=VUB, CN=CA/emailAddress=ca@vub.be
        Validity
            Not Before: May  7 14:32:36 2017 GMT
            Not After : Feb  1 14:32:36 2020 GMT
        Subject: C=BE, ST=Brussels, L=Brussels, O=VUB, CN=COLRUYT/domain=SuperMarket
        Subject Public Key Info:
            Public Key Algorithm: rsaEncryption
                Public-Key: (512 bit)
                Modulus:
                    00:ce:9a:1b:03:9c:95:af:a8:0f:e5:38:a0:b4:9c:
                    9f:b0:be:91:8b:2f:f5:c6:1f:65:a5:75:2a:a6:90:
                    25:82:a7:d9:aa:74:4d:65:c4:6a:67:6b:a7:03:1c:
                    51:21:24:1b:c0:0a:08:54:7c:55:7a:a3:6c:04:34:
                    3c:0f:55:a9:1d
                Exponent: 65537 (0x10001)
        X509v3 extensions:
            X509v3 Subject Key Identifier: 
                A5:AB:9C:2F:DA:AB:0F:86:AB:0F:71:AE:07:30:95:09:93:92:C8:C6
            X509v3 Authority Key Identifier: 
                keyid:FA:FF:2F:73:86:E7:AF:24:F4:6E:A5:EA:73:4F:70:3C:D8:E3:40:7B

            X509v3 Basic Constraints: 
                CA:FALSE
            X509v3 Key Usage: 
                Digital Signature, Key Encipherment
            X509v3 Subject Alternative Name: 
                DNS:localhost, IP Address:127.0.0.1, IP Address:0:0:0:0:0:0:0:1
            Netscape Comment: 
                OpenSSL Generated Certificate
    Signature Algorithm: sha256WithRSAEncryption
         a5:b7:8f:7c:a2:66:f1:eb:97:40:64:bc:21:a5:53:29:a2:ed:
         45:a4:4b:94:b6:63:89:bf:32:0e:af:2e:84:11:24:f8:14:ba:
         07:ed:73:66:b8:2a:00:7e:7e:09:e4:70:c9:14:b7:77:7f:91:
         26:8a:fb:1a:14:ee:f6:92:98:2d
-----BEGIN CERTIFICATE-----
MIICjjCCAjigAwIBAgIBBjANBgkqhkiG9w0BAQsFADB1MQswCQYDVQQGEwJCRTER
MA8GA1UECAwIQnJ1c3NlbHMxETAPBgNVBAcMCEJydXNzZWxzMQswCQYDVQQKDAJD
QTEMMAoGA1UECwwDVlVCMQswCQYDVQQDDAJDQTEYMBYGCSqGSIb3DQEJARYJY2FA
dnViLmJlMB4XDTE3MDUwNzE0MzIzNloXDTIwMDIwMTE0MzIzNlowcDELMAkGA1UE
BhMCQkUxETAPBgNVBAgMCEJydXNzZWxzMREwDwYDVQQHDAhCcnVzc2VsczEMMAoG
A1UECgwDVlVCMRAwDgYDVQQDDAdDT0xSVVlUMRswGQYKCZImiZPyLGQEDQwLU3Vw
ZXJNYXJrZXQwXDANBgkqhkiG9w0BAQEFAANLADBIAkEAzpobA5yVr6gP5TigtJyf
sL6Riy/1xh9lpXUqppAlgqfZqnRNZcRqZ2unAxxRISQbwAoIVHxVeqNsBDQ8D1Wp
HQIDAQABo4G3MIG0MB0GA1UdDgQWBBSlq5wv2qsPhqsPca4HMJUJk5LIxjAfBgNV
HSMEGDAWgBT6/y9zhuevJPRupepzT3A82ONAezAJBgNVHRMEAjAAMAsGA1UdDwQE
AwIFoDAsBgNVHREEJTAjgglsb2NhbGhvc3SHBH8AAAGHEAAAAAAAAAAAAAAAAAAA
AAEwLAYJYIZIAYb4QgENBB8WHU9wZW5TU0wgR2VuZXJhdGVkIENlcnRpZmljYXRl
MA0GCSqGSIb3DQEBCwUAA0EApbePfKJm8euXQGS8IaVTKaLtRaRLlLZjib8yDq8u
hBEk+BS6B+1zZrgqAH5+CeRwyRS3d3+RJor7GhTu9pKYLQ==
-----END CERTIFICATE-----
-----BEGIN ENCRYPTED PRIVATE KEY-----
MIIBpjBABgkqhkiG9w0BBQ0wMzAbBgkqhkiG9w0BBQwwDgQIepm0RulBM0gCAggA
MBQGCCqGSIb3DQMHBAi6I8K0kO4FKwSCAWAowjZSyehUNkSu94LtiZw9d6fzvmJ+
Sn+ngtl4ISkWwYwQV3goyaJMTIBKc4OWQn1NvMq29zW+7bkzRDlDbHTaiSciLdTK
yFIw9zDc7DPnN7DLy5MDQlpgxuBwZxVJD/8hRKrGXDih054f6aRtLV7ULeRKSHGR
s4t/Hs3ecFthqZgKfz8XiXi9IdaFCPMfOP2X15MEI0MZEu4l+RX9VEn1fAN4YelY
/BHzgCsA8kMoi4S+D3Mwc22EDI3HRcSQhzamply409cT/361EDluOwPG4U8PFJzS
gRPIpZ3DZf9uzT3TAYl6vj8qa4Kz2nC5J4gfug9BVnSTypgiRbnlawr8vHfuZd4a
WDeEcr0rthm2S3fi1zwGZXUiw+HvYw4GV1jwmjrN493po17vkQ3vBu8deMkZyoV9
+6oF05BnS298zv3gmf98Cq0wpJDLy37bdPNyHIw8B1cvsM1iwjaEzqHg
-----END ENCRYPTED PRIVATE KEY-----
