Certificate:
    Data:
        Version: 3 (0x2)
        Serial Number: 10 (0xa)
    Signature Algorithm: sha256WithRSAEncryption
        Issuer: C=BE, ST=Brussels, L=Brussels, O=CA, OU=VUB, CN=CA/emailAddress=ca@vub.be
        Validity
            Not Before: May 11 19:41:20 2017 GMT
            Not After : Feb  5 19:41:20 2020 GMT
        Subject: C=BE, ST=Brussels, L=Brussels, O=VUB, CN=COMMON/domain=common
        Subject Public Key Info:
            Public Key Algorithm: rsaEncryption
                Public-Key: (512 bit)
                Modulus:
                    00:b7:e6:d6:c7:a0:05:f0:08:a9:e6:46:92:ff:20:
                    b9:66:04:50:55:24:2e:67:b9:4b:08:23:d7:3b:e4:
                    16:18:73:49:b7:08:cd:23:28:c0:32:d7:48:90:5f:
                    f8:4d:b1:7c:90:bd:cc:c6:77:c4:e0:65:a2:4f:02:
                    89:e1:ad:6f:49
                Exponent: 65537 (0x10001)
        X509v3 extensions:
            X509v3 Subject Key Identifier: 
                08:38:E8:1F:E6:77:4B:EC:4D:C1:E1:79:6B:27:7D:FE:03:DA:20:BE
            X509v3 Authority Key Identifier: 
                keyid:FA:FF:2F:73:86:E7:AF:24:F4:6E:A5:EA:73:4F:70:3C:D8:E3:40:7B

            X509v3 Basic Constraints: 
                CA:FALSE
            X509v3 Key Usage: 
                Digital Signature, Key Encipherment
            X509v3 Subject Alternative Name: 
                DNS:localhost, IP Address:127.0.0.1, IP Address:0:0:0:0:0:0:0:1
            Netscape Comment: 
                OpenSSL Generated Certificate
    Signature Algorithm: sha256WithRSAEncryption
         69:be:5b:60:a1:00:ff:28:77:79:87:3f:9c:ed:11:12:52:fb:
         2d:fc:12:5e:39:8f:81:6f:65:f3:3a:97:92:66:32:3f:1d:4c:
         79:0f:ec:d6:7d:23:aa:31:58:e0:64:77:cb:db:52:96:32:2c:
         94:cb:fc:c4:6f:16:35:d5:76:2e
-----BEGIN CERTIFICATE-----
MIICiDCCAjKgAwIBAgIBCjANBgkqhkiG9w0BAQsFADB1MQswCQYDVQQGEwJCRTER
MA8GA1UECAwIQnJ1c3NlbHMxETAPBgNVBAcMCEJydXNzZWxzMQswCQYDVQQKDAJD
QTEMMAoGA1UECwwDVlVCMQswCQYDVQQDDAJDQTEYMBYGCSqGSIb3DQEJARYJY2FA
dnViLmJlMB4XDTE3MDUxMTE5NDEyMFoXDTIwMDIwNTE5NDEyMFowajELMAkGA1UE
BhMCQkUxETAPBgNVBAgMCEJydXNzZWxzMREwDwYDVQQHDAhCcnVzc2VsczEMMAoG
A1UECgwDVlVCMQ8wDQYDVQQDDAZDT01NT04xFjAUBgoJkiaJk/IsZAQNDAZjb21t
b24wXDANBgkqhkiG9w0BAQEFAANLADBIAkEAt+bWx6AF8Aip5kaS/yC5ZgRQVSQu
Z7lLCCPXO+QWGHNJtwjNIyjAMtdIkF/4TbF8kL3MxnfE4GWiTwKJ4a1vSQIDAQAB
o4G3MIG0MB0GA1UdDgQWBBQIOOgf5ndL7E3B4XlrJ33+A9ogvjAfBgNVHSMEGDAW
gBT6/y9zhuevJPRupepzT3A82ONAezAJBgNVHRMEAjAAMAsGA1UdDwQEAwIFoDAs
BgNVHREEJTAjgglsb2NhbGhvc3SHBH8AAAGHEAAAAAAAAAAAAAAAAAAAAAEwLAYJ
YIZIAYb4QgENBB8WHU9wZW5TU0wgR2VuZXJhdGVkIENlcnRpZmljYXRlMA0GCSqG
SIb3DQEBCwUAA0EAab5bYKEA/yh3eYc/nO0RElL7LfwSXjmPgW9l8zqXkmYyPx1M
eQ/s1n0jqjFY4GR3y9tSljIslMv8xG8WNdV2Lg==
-----END CERTIFICATE-----
