Certificate:
    Data:
        Version: 3 (0x2)
        Serial Number: 7 (0x7)
    Signature Algorithm: sha256WithRSAEncryption
        Issuer: C=BE, ST=Brussels, L=Brussels, O=CA, OU=VUB, CN=CA/emailAddress=ca@vub.be
        Validity
            Not Before: May  7 14:32:43 2017 GMT
            Not After : Feb  1 14:32:43 2020 GMT
        Subject: C=BE, ST=Brussels, L=Brussels, O=VUB, CN=DELHAIZE/domain=SuperMarket
        Subject Public Key Info:
            Public Key Algorithm: rsaEncryption
                Public-Key: (512 bit)
                Modulus:
                    00:ad:88:02:16:17:48:bb:e7:f3:e2:3c:a4:90:ce:
                    ac:b2:83:42:a5:96:2e:76:68:10:07:d6:ca:ad:d3:
                    be:06:e3:47:c9:57:1e:fc:5e:fa:4c:37:a4:b6:15:
                    e2:0e:02:a7:77:9d:b2:dd:a4:c3:0d:6b:46:37:6c:
                    03:b7:d2:6d:7f
                Exponent: 65537 (0x10001)
        X509v3 extensions:
            X509v3 Subject Key Identifier: 
                5B:CC:C8:97:8A:51:FD:17:BF:6C:54:3D:24:41:1E:E0:D0:D0:11:44
            X509v3 Authority Key Identifier: 
                keyid:FA:FF:2F:73:86:E7:AF:24:F4:6E:A5:EA:73:4F:70:3C:D8:E3:40:7B

            X509v3 Basic Constraints: 
                CA:FALSE
            X509v3 Key Usage: 
                Digital Signature, Key Encipherment
            X509v3 Subject Alternative Name: 
                DNS:localhost, IP Address:127.0.0.1, IP Address:0:0:0:0:0:0:0:1
            Netscape Comment: 
                OpenSSL Generated Certificate
    Signature Algorithm: sha256WithRSAEncryption
         94:01:82:90:82:c8:f6:b9:a8:eb:0e:9d:26:39:30:83:f7:99:
         d8:17:c1:55:01:94:11:0b:2f:e1:25:7c:4e:80:6c:8a:1e:8c:
         ff:e4:c9:a5:c6:af:53:ab:c4:11:ec:52:00:58:20:90:9e:d4:
         19:6f:57:88:6c:f8:cd:29:48:1b
-----BEGIN CERTIFICATE-----
MIICjzCCAjmgAwIBAgIBBzANBgkqhkiG9w0BAQsFADB1MQswCQYDVQQGEwJCRTER
MA8GA1UECAwIQnJ1c3NlbHMxETAPBgNVBAcMCEJydXNzZWxzMQswCQYDVQQKDAJD
QTEMMAoGA1UECwwDVlVCMQswCQYDVQQDDAJDQTEYMBYGCSqGSIb3DQEJARYJY2FA
dnViLmJlMB4XDTE3MDUwNzE0MzI0M1oXDTIwMDIwMTE0MzI0M1owcTELMAkGA1UE
BhMCQkUxETAPBgNVBAgMCEJydXNzZWxzMREwDwYDVQQHDAhCcnVzc2VsczEMMAoG
A1UECgwDVlVCMREwDwYDVQQDDAhERUxIQUlaRTEbMBkGCgmSJomT8ixkBA0MC1N1
cGVyTWFya2V0MFwwDQYJKoZIhvcNAQEBBQADSwAwSAJBAK2IAhYXSLvn8+I8pJDO
rLKDQqWWLnZoEAfWyq3TvgbjR8lXHvxe+kw3pLYV4g4Cp3edst2kww1rRjdsA7fS
bX8CAwEAAaOBtzCBtDAdBgNVHQ4EFgQUW8zIl4pR/Re/bFQ9JEEe4NDQEUQwHwYD
VR0jBBgwFoAU+v8vc4bnryT0bqXqc09wPNjjQHswCQYDVR0TBAIwADALBgNVHQ8E
BAMCBaAwLAYDVR0RBCUwI4IJbG9jYWxob3N0hwR/AAABhxAAAAAAAAAAAAAAAAAA
AAABMCwGCWCGSAGG+EIBDQQfFh1PcGVuU1NMIEdlbmVyYXRlZCBDZXJ0aWZpY2F0
ZTANBgkqhkiG9w0BAQsFAANBAJQBgpCCyPa5qOsOnSY5MIP3mdgXwVUBlBELL+El
fE6AbIoejP/kyaXGr1OrxBHsUgBYIJCe1BlvV4hs+M0pSBs=
-----END CERTIFICATE-----
