Certificate:
    Data:
        Version: 3 (0x2)
        Serial Number: 4 (0x4)
    Signature Algorithm: sha256WithRSAEncryption
        Issuer: C=BE, ST=Brussels, L=Brussels, O=CA, OU=VUB, CN=CA/emailAddress=ca@vub.be
        Validity
            Not Before: May  7 14:32:21 2017 GMT
            Not After : Feb  1 14:32:21 2020 GMT
        Subject: C=BE, ST=Brussels, L=Brussels, O=VUB, CN=FACEBOOK/domain=SocNet
        Subject Public Key Info:
            Public Key Algorithm: rsaEncryption
                Public-Key: (512 bit)
                Modulus:
                    00:b6:af:a5:57:a9:91:58:cc:b4:89:e0:8a:53:30:
                    4d:e9:ad:0b:31:0f:f7:63:ef:b8:78:17:7d:e2:8f:
                    20:a1:02:20:81:12:49:ac:3d:c6:11:94:7d:4b:c0:
                    f8:72:51:0d:dc:6b:f6:8e:99:3d:35:ad:54:3b:66:
                    13:5a:c0:ed:e5
                Exponent: 65537 (0x10001)
        X509v3 extensions:
            X509v3 Subject Key Identifier: 
                4A:5D:F9:93:8E:7D:F4:A7:05:2C:54:1E:F8:AD:22:07:51:22:FC:9A
            X509v3 Authority Key Identifier: 
                keyid:FA:FF:2F:73:86:E7:AF:24:F4:6E:A5:EA:73:4F:70:3C:D8:E3:40:7B

            X509v3 Basic Constraints: 
                CA:FALSE
            X509v3 Key Usage: 
                Digital Signature, Key Encipherment
            X509v3 Subject Alternative Name: 
                DNS:localhost, IP Address:127.0.0.1, IP Address:0:0:0:0:0:0:0:1
            Netscape Comment: 
                OpenSSL Generated Certificate
    Signature Algorithm: sha256WithRSAEncryption
         4d:60:71:ca:48:47:17:0b:8c:e9:c1:33:c4:d1:28:aa:f8:08:
         db:b6:8d:d9:d4:3c:39:ac:13:0e:42:e8:fc:0a:06:a4:11:71:
         63:88:97:ad:cc:49:91:a5:ed:19:01:32:af:f0:d0:88:2d:42:
         99:94:51:f6:30:74:f1:e9:76:f4
-----BEGIN CERTIFICATE-----
MIICijCCAjSgAwIBAgIBBDANBgkqhkiG9w0BAQsFADB1MQswCQYDVQQGEwJCRTER
MA8GA1UECAwIQnJ1c3NlbHMxETAPBgNVBAcMCEJydXNzZWxzMQswCQYDVQQKDAJD
QTEMMAoGA1UECwwDVlVCMQswCQYDVQQDDAJDQTEYMBYGCSqGSIb3DQEJARYJY2FA
dnViLmJlMB4XDTE3MDUwNzE0MzIyMVoXDTIwMDIwMTE0MzIyMVowbDELMAkGA1UE
BhMCQkUxETAPBgNVBAgMCEJydXNzZWxzMREwDwYDVQQHDAhCcnVzc2VsczEMMAoG
A1UECgwDVlVCMREwDwYDVQQDDAhGQUNFQk9PSzEWMBQGCgmSJomT8ixkBA0MBlNv
Y05ldDBcMA0GCSqGSIb3DQEBAQUAA0sAMEgCQQC2r6VXqZFYzLSJ4IpTME3prQsx
D/dj77h4F33ijyChAiCBEkmsPcYRlH1LwPhyUQ3ca/aOmT01rVQ7ZhNawO3lAgMB
AAGjgbcwgbQwHQYDVR0OBBYEFEpd+ZOOffSnBSxUHvitIgdRIvyaMB8GA1UdIwQY
MBaAFPr/L3OG568k9G6l6nNPcDzY40B7MAkGA1UdEwQCMAAwCwYDVR0PBAQDAgWg
MCwGA1UdEQQlMCOCCWxvY2FsaG9zdIcEfwAAAYcQAAAAAAAAAAAAAAAAAAAAATAs
BglghkgBhvhCAQ0EHxYdT3BlblNTTCBHZW5lcmF0ZWQgQ2VydGlmaWNhdGUwDQYJ
KoZIhvcNAQELBQADQQBNYHHKSEcXC4zpwTPE0Siq+Ajbto3Z1Dw5rBMOQuj8Cgak
EXFjiJetzEmRpe0ZATKv8NCILUKZlFH2MHTx6Xb0
-----END CERTIFICATE-----
