Certificate:
    Data:
        Version: 3 (0x2)
        Serial Number: 4 (0x4)
    Signature Algorithm: sha256WithRSAEncryption
        Issuer: C=BE, ST=Brussels, L=Brussels, O=CA, OU=VUB, CN=CA/emailAddress=ca@vub.be
        Validity
            Not Before: May  7 13:46:26 2017 GMT
            Not After : Feb  1 13:46:26 2020 GMT
        Subject: C=BE, ST=Brussels, L=Brussels, O=VUB, CN=FACEBOOK/domain=SocNet
        Subject Public Key Info:
            Public Key Algorithm: rsaEncryption
                Public-Key: (2048 bit)
                Modulus:
                    00:e6:2d:c0:9c:ef:8d:17:2d:ef:bd:08:9e:69:91:
                    2a:fe:88:d3:98:23:2c:7a:11:15:68:f1:0e:5f:6d:
                    3c:5e:e9:8d:10:38:aa:76:11:c5:82:83:46:af:c8:
                    7e:8c:b3:cb:fa:1d:74:cb:04:2b:2f:7b:dc:aa:7c:
                    23:4c:f3:33:af:19:5d:a4:63:53:2b:00:7c:f6:ca:
                    ae:3a:23:e8:f6:9b:3e:fb:11:4b:68:7c:01:75:11:
                    87:f7:58:f8:3d:82:67:f0:97:68:c9:5b:2b:55:10:
                    9c:49:db:39:f3:af:46:35:7a:25:64:e1:02:44:e6:
                    a8:03:4a:04:31:fb:11:a1:77:6f:8f:10:34:11:29:
                    8b:35:e7:20:32:e7:05:e6:d9:90:68:5d:06:33:9a:
                    26:d6:b7:90:65:e9:6f:8b:ca:c6:13:32:4e:be:fe:
                    fb:f5:56:84:bd:33:46:56:5c:ae:b1:bc:f0:5a:2f:
                    9e:a6:7c:19:e1:18:2b:70:c1:77:30:72:5d:10:21:
                    bd:b6:72:2a:7c:9e:f0:30:5a:4b:54:d1:11:70:a4:
                    f9:29:79:d8:3a:cb:20:4d:7d:00:da:94:6e:ff:c5:
                    e2:18:9e:22:98:41:9f:36:26:95:b7:08:86:09:73:
                    ac:02:b0:90:81:d6:1c:67:ea:75:40:d0:a5:f4:09:
                    6b:a7
                Exponent: 65537 (0x10001)
        X509v3 extensions:
            X509v3 Subject Key Identifier: 
                E9:09:1D:D4:54:C4:F3:E8:F7:70:31:92:FE:0F:F4:A4:0E:17:8F:BA
            X509v3 Authority Key Identifier: 
                keyid:C5:86:00:BC:FF:4D:8E:2C:99:8B:52:12:78:A0:D7:70:B0:18:73:1C

            X509v3 Basic Constraints: 
                CA:FALSE
            X509v3 Key Usage: 
                Digital Signature, Key Encipherment
            X509v3 Subject Alternative Name: 
                DNS:localhost, IP Address:127.0.0.1, IP Address:0:0:0:0:0:0:0:1
            Netscape Comment: 
                OpenSSL Generated Certificate
    Signature Algorithm: sha256WithRSAEncryption
         1a:b2:ce:0d:a7:d4:0b:79:b9:f3:64:bf:95:b0:79:5a:27:8c:
         b2:8b:41:10:c7:0d:0d:a7:df:cc:5f:32:8c:d2:f6:49:35:dd:
         94:8a:96:6e:aa:a1:4f:e7:2b:30:67:46:e3:2f:87:94:58:ec:
         18:18:22:3d:f3:7b:22:b9:c6:9a:b7:b8:ea:d4:e3:d3:b8:a4:
         4b:db:f2:9a:1f:c9:cd:b1:ff:58:d6:2f:33:fd:2d:96:0d:dc:
         05:86:99:3d:37:f7:d3:ec:87:f6:34:cf:83:60:22:f6:1e:6c:
         3f:f8:17:36:4e:c7:f3:56:85:1d:bf:fe:f1:90:dc:c5:99:8c:
         3b:c6:29:28:f3:dd:58:b2:5e:4c:8a:a8:97:6b:7f:58:ac:6f:
         f9:c2:b2:c1:1c:bb:36:9b:e0:82:19:0c:3c:24:f4:97:90:17:
         f1:ba:82:0d:8a:e8:3b:c5:80:8e:e2:33:aa:2c:60:58:4c:03:
         c3:64:a9:9c:c2:d5:2e:13:09:a3:34:44:3a:9a:5d:c1:c8:9f:
         42:ec:e4:91:42:fb:fd:6b:0a:eb:76:df:82:65:f7:e8:26:fe:
         0b:16:22:1a:df:80:05:b1:e5:58:10:5d:31:ba:e0:c9:f3:ed:
         9a:f3:b6:4f:23:51:2a:3b:9f:67:df:14:ee:cb:98:50:16:2d:
         e5:c3:f8:f3:0a:b5:5f:fa:b5:0d:a0:73:87:ac:ab:ee:21:1b:
         e3:2c:10:77:c7:6c:2d:39:10:b1:2b:c7:a7:d4:b1:c7:dd:ab:
         2f:c3:05:01:69:2d:d5:6f:6b:4d:c5:fb:d5:3c:0c:85:54:d5:
         14:cb:dd:ff:57:d8:e3:45:b2:8a:6d:d4:80:b7:18:e5:e9:fe:
         a6:7c:3a:40:3d:1d:46:c2:bb:80:0e:17:0c:d4:a4:40:48:f8:
         c1:92:2c:6a:5f:5f:3b:82:c6:6d:1c:b7:af:c6:54:14:b3:a8:
         35:b0:65:34:77:76:80:b1:23:4e:c0:7d:2e:37:00:e2:b5:98:
         e1:00:68:66:0a:d0:4d:f3:0e:be:b0:48:59:7a:68:e6:0a:6d:
         a1:72:97:9f:b0:35:7f:33:f4:48:b9:0a:00:18:94:70:e1:4f:
         98:5a:4e:f1:6a:b6:7e:32:0d:17:1a:b6:d5:84:24:6c:c3:a1:
         95:59:7a:2d:5b:57:39:66:24:43:c4:64:f1:b1:5f:d5:67:70:
         45:45:85:fe:cf:7c:09:69:86:01:2f:4a:e7:b2:8e:57:91:2c:
         81:82:d9:d9:d4:22:b7:83:e2:8c:fc:02:a7:22:1d:1c:6d:7a:
         b0:a7:7c:0a:9a:34:be:29:66:cb:8b:88:c1:08:73:0d:6d:d5:
         ed:93:97:35:ee:40:54:3c
-----BEGIN CERTIFICATE-----
MIIFFDCCAvygAwIBAgIBBDANBgkqhkiG9w0BAQsFADB1MQswCQYDVQQGEwJCRTER
MA8GA1UECAwIQnJ1c3NlbHMxETAPBgNVBAcMCEJydXNzZWxzMQswCQYDVQQKDAJD
QTEMMAoGA1UECwwDVlVCMQswCQYDVQQDDAJDQTEYMBYGCSqGSIb3DQEJARYJY2FA
dnViLmJlMB4XDTE3MDUwNzEzNDYyNloXDTIwMDIwMTEzNDYyNlowbDELMAkGA1UE
BhMCQkUxETAPBgNVBAgMCEJydXNzZWxzMREwDwYDVQQHDAhCcnVzc2VsczEMMAoG
A1UECgwDVlVCMREwDwYDVQQDDAhGQUNFQk9PSzEWMBQGCgmSJomT8ixkBA0MBlNv
Y05ldDCCASIwDQYJKoZIhvcNAQEBBQADggEPADCCAQoCggEBAOYtwJzvjRct770I
nmmRKv6I05gjLHoRFWjxDl9tPF7pjRA4qnYRxYKDRq/Ifoyzy/oddMsEKy973Kp8
I0zzM68ZXaRjUysAfPbKrjoj6PabPvsRS2h8AXURh/dY+D2CZ/CXaMlbK1UQnEnb
OfOvRjV6JWThAkTmqANKBDH7EaF3b48QNBEpizXnIDLnBebZkGhdBjOaJta3kGXp
b4vKxhMyTr7++/VWhL0zRlZcrrG88FovnqZ8GeEYK3DBdzByXRAhvbZyKnye8DBa
S1TREXCk+Sl52DrLIE19ANqUbv/F4hieIphBnzYmlbcIhglzrAKwkIHWHGfqdUDQ
pfQJa6cCAwEAAaOBtzCBtDAdBgNVHQ4EFgQU6Qkd1FTE8+j3cDGS/g/0pA4Xj7ow
HwYDVR0jBBgwFoAUxYYAvP9NjiyZi1ISeKDXcLAYcxwwCQYDVR0TBAIwADALBgNV
HQ8EBAMCBaAwLAYDVR0RBCUwI4IJbG9jYWxob3N0hwR/AAABhxAAAAAAAAAAAAAA
AAAAAAABMCwGCWCGSAGG+EIBDQQfFh1PcGVuU1NMIEdlbmVyYXRlZCBDZXJ0aWZp
Y2F0ZTANBgkqhkiG9w0BAQsFAAOCAgEAGrLODafUC3m582S/lbB5WieMsotBEMcN
DaffzF8yjNL2STXdlIqWbqqhT+crMGdG4y+HlFjsGBgiPfN7IrnGmre46tTj07ik
S9vymh/JzbH/WNYvM/0tlg3cBYaZPTf30+yH9jTPg2Ai9h5sP/gXNk7H81aFHb/+
8ZDcxZmMO8YpKPPdWLJeTIqol2t/WKxv+cKywRy7NpvgghkMPCT0l5AX8bqCDYro
O8WAjuIzqixgWEwDw2SpnMLVLhMJozREOppdwcifQuzkkUL7/WsK63bfgmX36Cb+
CxYiGt+ABbHlWBBdMbrgyfPtmvO2TyNRKjufZ98U7suYUBYt5cP48wq1X/q1DaBz
h6yr7iEb4ywQd8dsLTkQsSvHp9Sxx92rL8MFAWkt1W9rTcX71TwMhVTVFMvd/1fY
40Wyim3UgLcY5en+pnw6QD0dRsK7gA4XDNSkQEj4wZIsal9fO4LGbRy3r8ZUFLOo
NbBlNHd2gLEjTsB9LjcA4rWY4QBoZgrQTfMOvrBIWXpo5gptoXKXn7A1fzP0SLkK
ABiUcOFPmFpO8Wq2fjINFxq21YQkbMOhlVl6LVtXOWYkQ8Rk8bFf1WdwRUWF/s98
CWmGAS9K57KOV5EsgYLZ2dQit4PijPwCpyIdHG16sKd8Cpo0vilmy4uIwQhzDW3V
7ZOXNe5AVDw=
-----END CERTIFICATE-----
