Certificate:
    Data:
        Version: 3 (0x2)
        Serial Number: 5 (0x5)
    Signature Algorithm: sha256WithRSAEncryption
        Issuer: C=BE, ST=Brussels, L=Brussels, O=CA, OU=VUB, CN=CA/emailAddress=ca@vub.be
        Validity
            Not Before: May  7 14:32:29 2017 GMT
            Not After : Feb  1 14:32:29 2020 GMT
        Subject: C=BE, ST=Brussels, L=Brussels, O=VUB, CN=GOOGLE/domain=SocNet
        Subject Public Key Info:
            Public Key Algorithm: rsaEncryption
                Public-Key: (512 bit)
                Modulus:
                    00:a6:ed:09:df:17:f3:d7:18:8f:2a:97:46:9f:90:
                    45:ab:6b:f9:f0:f4:81:bc:73:96:82:e9:64:da:d7:
                    03:02:9e:1e:13:e0:8e:5c:d2:9e:10:c4:38:8a:03:
                    47:f8:f8:0d:bc:5e:26:5c:eb:90:4f:f1:f0:be:a5:
                    46:5c:29:9c:13
                Exponent: 65537 (0x10001)
        X509v3 extensions:
            X509v3 Subject Key Identifier: 
                CE:9C:CF:45:9C:A8:DB:B0:97:60:64:96:AD:9D:2B:F8:93:F2:CE:48
            X509v3 Authority Key Identifier: 
                keyid:FA:FF:2F:73:86:E7:AF:24:F4:6E:A5:EA:73:4F:70:3C:D8:E3:40:7B

            X509v3 Basic Constraints: 
                CA:FALSE
            X509v3 Key Usage: 
                Digital Signature, Key Encipherment
            X509v3 Subject Alternative Name: 
                DNS:localhost, IP Address:127.0.0.1, IP Address:0:0:0:0:0:0:0:1
            Netscape Comment: 
                OpenSSL Generated Certificate
    Signature Algorithm: sha256WithRSAEncryption
         cd:2c:f6:fd:9e:83:fe:33:29:85:f4:36:01:37:55:a5:43:18:
         eb:8b:c9:da:9e:ce:14:8d:8b:e3:5c:e4:4c:37:0f:75:c5:40:
         45:5a:86:8d:44:99:8e:f1:87:c7:17:c8:25:b1:cb:df:82:55:
         ca:e1:5e:f8:5d:56:08:bd:97:bc
-----BEGIN CERTIFICATE-----
MIICiDCCAjKgAwIBAgIBBTANBgkqhkiG9w0BAQsFADB1MQswCQYDVQQGEwJCRTER
MA8GA1UECAwIQnJ1c3NlbHMxETAPBgNVBAcMCEJydXNzZWxzMQswCQYDVQQKDAJD
QTEMMAoGA1UECwwDVlVCMQswCQYDVQQDDAJDQTEYMBYGCSqGSIb3DQEJARYJY2FA
dnViLmJlMB4XDTE3MDUwNzE0MzIyOVoXDTIwMDIwMTE0MzIyOVowajELMAkGA1UE
BhMCQkUxETAPBgNVBAgMCEJydXNzZWxzMREwDwYDVQQHDAhCcnVzc2VsczEMMAoG
A1UECgwDVlVCMQ8wDQYDVQQDDAZHT09HTEUxFjAUBgoJkiaJk/IsZAQNDAZTb2NO
ZXQwXDANBgkqhkiG9w0BAQEFAANLADBIAkEApu0J3xfz1xiPKpdGn5BFq2v58PSB
vHOWgulk2tcDAp4eE+COXNKeEMQ4igNH+PgNvF4mXOuQT/HwvqVGXCmcEwIDAQAB
o4G3MIG0MB0GA1UdDgQWBBTOnM9FnKjbsJdgZJatnSv4k/LOSDAfBgNVHSMEGDAW
gBT6/y9zhuevJPRupepzT3A82ONAezAJBgNVHRMEAjAAMAsGA1UdDwQEAwIFoDAs
BgNVHREEJTAjgglsb2NhbGhvc3SHBH8AAAGHEAAAAAAAAAAAAAAAAAAAAAEwLAYJ
YIZIAYb4QgENBB8WHU9wZW5TU0wgR2VuZXJhdGVkIENlcnRpZmljYXRlMA0GCSqG
SIb3DQEBCwUAA0EAzSz2/Z6D/jMphfQ2ATdVpUMY64vJ2p7OFI2L41zkTDcPdcVA
RVqGjUSZjvGHxxfIJbHL34JVyuFe+F1WCL2XvA==
-----END CERTIFICATE-----
