Certificate:
    Data:
        Version: 3 (0x2)
        Serial Number: 5 (0x5)
    Signature Algorithm: sha256WithRSAEncryption
        Issuer: C=BE, ST=Brussels, L=Brussels, O=CA, OU=VUB, CN=CA/emailAddress=ca@vub.be
        Validity
            Not Before: May  7 13:50:57 2017 GMT
            Not After : Feb  1 13:50:57 2020 GMT
        Subject: C=BE, ST=Brussels, L=Brussels, O=VUB, CN=GOOGLE/domain=SocNet
        Subject Public Key Info:
            Public Key Algorithm: rsaEncryption
                Public-Key: (2048 bit)
                Modulus:
                    00:c8:be:7a:20:a0:88:f5:a5:1e:02:6f:c5:38:1b:
                    85:76:35:cd:a3:96:75:18:2b:ef:d9:46:15:70:56:
                    24:e1:b1:a3:97:81:7c:a6:33:db:72:7c:73:b6:40:
                    73:7e:33:12:16:99:ed:53:d5:f2:62:84:46:46:e1:
                    90:51:4d:53:3c:69:8b:c3:2d:6c:0e:fd:09:3d:da:
                    80:f2:0c:70:2a:e7:7a:e8:93:66:dd:d8:3a:42:32:
                    b8:cb:9a:3c:35:67:3a:04:c1:55:ee:49:fb:90:c2:
                    4d:42:84:6c:f4:58:32:07:46:fb:ee:86:65:f2:fe:
                    4e:fc:e4:eb:ce:d7:7c:f8:85:b6:80:34:cc:c2:f0:
                    8d:d5:91:1d:c3:e2:0d:53:00:20:1d:aa:98:18:98:
                    58:b9:88:a6:fc:d7:c4:ba:2f:78:ce:78:f7:b6:d6:
                    d0:6a:9b:ae:32:77:40:b5:49:9c:4a:fd:f0:ee:68:
                    63:26:9c:3d:6f:85:b3:95:fd:9c:6d:0a:79:84:82:
                    c0:cd:5c:0b:ea:59:b4:0b:24:f7:52:33:d9:01:f4:
                    b7:6c:2d:6b:26:1a:03:3d:5f:ac:16:7c:2d:5f:ed:
                    03:af:47:1b:d8:64:08:32:a4:19:5e:c7:19:1a:6f:
                    a6:18:0d:08:80:07:73:97:16:77:09:65:ba:aa:66:
                    79:45
                Exponent: 65537 (0x10001)
        X509v3 extensions:
            X509v3 Subject Key Identifier: 
                E8:76:C8:89:30:B4:2F:9B:BE:0C:6A:8E:56:EA:45:B4:CD:1D:A2:DF
            X509v3 Authority Key Identifier: 
                keyid:C5:86:00:BC:FF:4D:8E:2C:99:8B:52:12:78:A0:D7:70:B0:18:73:1C

            X509v3 Basic Constraints: 
                CA:FALSE
            X509v3 Key Usage: 
                Digital Signature, Key Encipherment
            X509v3 Subject Alternative Name: 
                DNS:localhost, IP Address:127.0.0.1, IP Address:0:0:0:0:0:0:0:1
            Netscape Comment: 
                OpenSSL Generated Certificate
    Signature Algorithm: sha256WithRSAEncryption
         50:59:d8:ca:61:ac:c9:7f:f4:46:2f:d0:96:9e:09:10:81:83:
         6f:4b:c0:eb:5c:98:f1:8c:a4:df:9f:0e:e4:54:4b:00:6e:2d:
         b5:e7:c1:4d:24:d0:55:b6:88:ad:1a:4b:55:5e:ec:71:c4:1b:
         99:c8:17:45:0a:2c:c5:09:af:1e:50:b9:01:41:18:0e:aa:0e:
         54:9a:c9:1f:12:17:31:1a:37:ad:60:51:6e:b2:93:7d:a2:9b:
         b8:f7:85:63:a3:df:db:5c:a2:9c:ce:a0:5c:7c:1b:1f:d1:62:
         22:cb:ce:c1:30:3c:05:0e:a1:c8:f8:ff:64:29:d1:77:18:c6:
         69:39:dc:3e:96:94:6e:21:23:7f:26:3c:9c:96:b5:07:47:85:
         6d:3c:92:dd:f4:c0:77:70:dd:17:ed:6a:cc:a2:74:e4:52:01:
         b1:fa:8a:5f:f6:f6:5d:5c:f7:47:35:4d:f1:92:e3:f0:10:88:
         66:5f:2d:6e:b3:9f:e4:ec:27:b2:90:1e:eb:df:0d:6d:07:41:
         9f:a6:ca:98:aa:0b:19:aa:f2:f1:ae:eb:71:c4:ad:19:2a:d9:
         19:6c:7a:07:92:80:38:be:82:da:6a:fa:b1:1c:84:1b:bc:91:
         18:26:34:69:e3:bf:25:34:b3:84:b0:9b:19:d6:20:5f:bf:57:
         9f:05:55:2c:49:2b:90:10:a9:2d:47:16:e2:c4:c1:4a:56:a3:
         bf:5f:86:ea:5e:9f:ec:d0:2c:38:08:b1:3d:b6:83:98:fd:5e:
         40:68:09:cb:5c:9f:74:33:98:21:de:d7:85:22:a1:87:db:96:
         39:12:11:6c:cc:7b:37:3c:4c:87:03:40:0c:cf:1e:0a:b4:2d:
         f3:fe:9e:b7:0e:22:2c:3b:b3:7b:54:04:fe:d1:cd:01:c0:60:
         27:be:d5:18:e2:73:78:6e:41:b7:c8:8a:f3:4d:86:b5:9f:0a:
         c5:d3:15:c6:6e:7d:98:2e:5d:bd:2e:c4:be:27:04:11:06:78:
         bf:f1:06:33:cf:e2:91:76:7e:67:97:a7:22:de:1b:36:37:91:
         d9:bf:e7:04:f4:a9:64:ce:c9:f9:57:1b:8d:37:0a:0c:33:29:
         91:8e:60:62:1f:cd:25:c6:4f:5c:93:ef:cf:17:44:4e:6c:90:
         0a:28:ca:d5:cb:e3:5a:31:3f:6f:06:fc:1e:54:4b:2b:ba:22:
         e1:e5:a6:6c:92:c3:c1:ff:7a:29:3e:12:4d:ef:e3:0e:35:6b:
         01:c6:25:44:1b:ee:02:f8:c4:ad:f2:9f:50:96:73:82:99:8c:
         75:0c:1b:5c:1c:5c:f7:39:cc:5c:01:02:db:0b:af:21:f2:b6:
         2d:c5:85:f9:92:52:c5:20
-----BEGIN CERTIFICATE-----
MIIFEjCCAvqgAwIBAgIBBTANBgkqhkiG9w0BAQsFADB1MQswCQYDVQQGEwJCRTER
MA8GA1UECAwIQnJ1c3NlbHMxETAPBgNVBAcMCEJydXNzZWxzMQswCQYDVQQKDAJD
QTEMMAoGA1UECwwDVlVCMQswCQYDVQQDDAJDQTEYMBYGCSqGSIb3DQEJARYJY2FA
dnViLmJlMB4XDTE3MDUwNzEzNTA1N1oXDTIwMDIwMTEzNTA1N1owajELMAkGA1UE
BhMCQkUxETAPBgNVBAgMCEJydXNzZWxzMREwDwYDVQQHDAhCcnVzc2VsczEMMAoG
A1UECgwDVlVCMQ8wDQYDVQQDDAZHT09HTEUxFjAUBgoJkiaJk/IsZAQNDAZTb2NO
ZXQwggEiMA0GCSqGSIb3DQEBAQUAA4IBDwAwggEKAoIBAQDIvnogoIj1pR4Cb8U4
G4V2Nc2jlnUYK+/ZRhVwViThsaOXgXymM9tyfHO2QHN+MxIWme1T1fJihEZG4ZBR
TVM8aYvDLWwO/Qk92oDyDHAq53rok2bd2DpCMrjLmjw1ZzoEwVXuSfuQwk1ChGz0
WDIHRvvuhmXy/k785OvO13z4hbaANMzC8I3VkR3D4g1TACAdqpgYmFi5iKb818S6
L3jOePe21tBqm64yd0C1SZxK/fDuaGMmnD1vhbOV/ZxtCnmEgsDNXAvqWbQLJPdS
M9kB9LdsLWsmGgM9X6wWfC1f7QOvRxvYZAgypBlexxkab6YYDQiAB3OXFncJZbqq
ZnlFAgMBAAGjgbcwgbQwHQYDVR0OBBYEFOh2yIkwtC+bvgxqjlbqRbTNHaLfMB8G
A1UdIwQYMBaAFMWGALz/TY4smYtSEnig13CwGHMcMAkGA1UdEwQCMAAwCwYDVR0P
BAQDAgWgMCwGA1UdEQQlMCOCCWxvY2FsaG9zdIcEfwAAAYcQAAAAAAAAAAAAAAAA
AAAAATAsBglghkgBhvhCAQ0EHxYdT3BlblNTTCBHZW5lcmF0ZWQgQ2VydGlmaWNh
dGUwDQYJKoZIhvcNAQELBQADggIBAFBZ2MphrMl/9EYv0JaeCRCBg29LwOtcmPGM
pN+fDuRUSwBuLbXnwU0k0FW2iK0aS1Ve7HHEG5nIF0UKLMUJrx5QuQFBGA6qDlSa
yR8SFzEaN61gUW6yk32im7j3hWOj39tcopzOoFx8Gx/RYiLLzsEwPAUOocj4/2Qp
0XcYxmk53D6WlG4hI38mPJyWtQdHhW08kt30wHdw3RftasyidORSAbH6il/29l1c
90c1TfGS4/AQiGZfLW6zn+TsJ7KQHuvfDW0HQZ+mypiqCxmq8vGu63HErRkq2Rls
egeSgDi+gtpq+rEchBu8kRgmNGnjvyU0s4SwmxnWIF+/V58FVSxJK5AQqS1HFuLE
wUpWo79fhupen+zQLDgIsT22g5j9XkBoCctcn3QzmCHe14UioYfbljkSEWzMezc8
TIcDQAzPHgq0LfP+nrcOIiw7s3tUBP7RzQHAYCe+1Rjic3huQbfIivNNhrWfCsXT
FcZufZguXb0uxL4nBBEGeL/xBjPP4pF2fmeXpyLeGzY3kdm/5wT0qWTOyflXG403
CgwzKZGOYGIfzSXGT1yT788XRE5skAooytXL41oxP28G/B5USyu6IuHlpmySw8H/
eik+Ek3v4w41awHGJUQb7gL4xK3yn1CWc4KZjHUMG1wcXPc5zFwBAtsLryHyti3F
hfmSUsUg
-----END CERTIFICATE-----
