Certificate:
    Data:
        Version: 3 (0x2)
        Serial Number: 1 (0x1)
    Signature Algorithm: sha256WithRSAEncryption
        Issuer: C=BE, ST=Brussels, L=Brussels, O=CA, OU=VUB, CN=CA/emailAddress=ca@vub.be
        Validity
            Not Before: May  1 16:31:59 2017 GMT
            Not After : Jan 26 16:31:59 2020 GMT
        Subject: C=BE, ST=Brussels, L=Brussels, O=VUB, CN=GOV
        Subject Public Key Info:
            Public Key Algorithm: rsaEncryption
                Public-Key: (2048 bit)
                Modulus:
                    00:ce:eb:ae:37:2e:5e:20:35:5f:0a:0a:21:af:11:
                    30:02:04:82:26:ee:6d:9f:15:7c:a4:e0:7e:7c:bd:
                    08:26:27:0d:5b:a6:a6:cc:86:83:97:e7:22:31:ca:
                    42:12:30:f5:a8:cb:31:27:ff:6e:1e:dc:9d:3c:ec:
                    86:a4:51:f2:42:8f:fa:90:f4:1a:19:d7:19:1c:51:
                    26:0e:02:f0:7e:7c:95:4f:9b:1b:d8:a6:29:ef:44:
                    54:dc:6d:85:99:91:27:04:71:b9:be:de:1e:c7:86:
                    67:13:67:38:41:f5:f3:a5:0d:37:79:34:8f:2c:50:
                    2b:6a:d2:6f:3e:d3:32:31:df:2a:ab:72:bf:f6:38:
                    0c:44:44:f2:d9:cc:4d:40:50:2e:64:f4:b1:2a:a4:
                    9f:ea:b0:f6:b9:1d:dc:9f:de:1e:f4:68:2b:ae:73:
                    c1:0f:95:d5:a5:c8:8a:e6:cd:19:20:62:12:82:39:
                    3c:27:5e:02:eb:a3:ac:28:b7:99:ee:05:b1:94:87:
                    c3:96:0c:b0:6f:fb:72:6f:d8:06:88:b2:0b:2e:40:
                    af:7c:ef:02:db:49:16:20:82:64:58:de:7d:ec:18:
                    c0:cd:33:3e:c5:a3:0b:e5:70:17:cb:32:36:c1:69:
                    41:0f:e9:d6:ba:fb:46:b7:bd:af:ec:83:a6:e4:72:
                    43:55
                Exponent: 65537 (0x10001)
        X509v3 extensions:
            X509v3 Subject Key Identifier: 
                42:D4:CF:20:E4:97:C3:B3:9D:EB:FF:C3:FC:D5:29:FF:4C:FD:55:BD
            X509v3 Authority Key Identifier: 
                keyid:C5:86:00:BC:FF:4D:8E:2C:99:8B:52:12:78:A0:D7:70:B0:18:73:1C

            X509v3 Basic Constraints: 
                CA:FALSE
            X509v3 Key Usage: 
                Digital Signature, Key Encipherment
            X509v3 Subject Alternative Name: 
                DNS:localhost, IP Address:127.0.0.1, IP Address:0:0:0:0:0:0:0:1
            Netscape Comment: 
                OpenSSL Generated Certificate
    Signature Algorithm: sha256WithRSAEncryption
         3d:15:e8:74:06:c8:72:c9:37:1a:6a:dd:ea:f5:d0:b5:f5:36:
         42:17:6b:14:3e:a1:70:2b:a9:c5:85:ac:24:dc:a3:67:65:74:
         84:ea:d7:0a:08:c0:6c:f1:08:5a:d3:83:01:86:22:ae:5b:ef:
         1e:c4:eb:be:d5:07:24:b0:16:62:e1:fe:0d:e7:fd:31:4c:e6:
         c2:f7:eb:1d:21:90:a1:4b:37:1b:c5:69:8b:a1:c9:a7:f6:ce:
         fc:1d:77:4d:45:7f:b6:58:35:5c:6a:a2:59:71:84:db:d3:7e:
         89:0b:b6:99:02:b3:9e:8f:1d:99:81:31:1e:7e:38:c6:71:6c:
         6d:35:30:44:21:90:9b:ee:30:16:cf:c3:4c:e2:6a:00:b6:43:
         37:9f:22:d4:01:51:32:a4:ae:6e:27:7b:55:ac:27:bb:6d:31:
         51:f3:58:68:b1:e8:1f:a9:1f:81:27:71:2c:84:1c:60:2b:77:
         c3:c2:ad:4d:66:a5:ba:ad:38:a3:0c:42:ae:88:a8:16:fb:21:
         a0:a8:aa:f8:b2:04:0c:00:2d:96:ae:44:d4:6a:7a:c0:b4:a6:
         1f:cc:f6:9b:ec:18:e7:d2:79:e1:b5:35:e4:5e:68:9d:96:b0:
         80:3e:d6:68:fc:ac:d5:6d:ff:bc:1e:f6:84:1d:e2:c9:a6:98:
         ea:87:53:90:4b:98:89:44:83:2e:e4:d1:ca:ae:e7:22:04:c2:
         32:8b:b7:d8:47:04:33:2e:cc:b0:1e:f9:7e:6b:c7:e2:ad:dc:
         58:99:47:9c:cc:d8:f2:a7:44:32:ff:47:26:75:f8:e1:36:c3:
         3f:7b:a4:58:a9:6a:2f:9d:45:18:25:e0:22:28:a1:95:08:6a:
         c8:33:fc:d0:f9:1e:23:a7:db:25:9a:83:24:10:e2:bd:86:cf:
         3b:f8:be:8b:c9:16:99:86:7e:be:48:98:c9:bc:a0:d8:91:82:
         f8:41:ae:1f:d3:24:6a:08:a4:ae:28:f6:79:fb:11:45:f5:3f:
         8c:04:0a:0b:49:e4:93:ab:d1:82:1e:c7:ab:16:1b:0e:e3:c2:
         ff:5c:5b:d2:3a:a8:ee:e2:11:3d:b3:46:54:98:9e:cf:2e:71:
         ce:36:56:d6:17:28:cd:3e:7e:d8:72:1a:e4:85:c5:44:db:70:
         0c:f6:2f:b1:a6:c3:56:28:9f:93:52:fa:d1:f8:dd:fb:ed:ee:
         96:88:9c:e2:a8:ea:df:1e:91:f5:e8:55:1d:2c:6d:80:0b:4c:
         b1:5b:f5:68:3b:50:d0:41:f9:c0:e4:df:23:cc:27:d4:0e:09:
         76:da:4f:4e:ae:73:26:8a:55:cb:52:bb:a6:89:17:30:d0:a9:
         45:86:55:cd:76:ed:c2:90
-----BEGIN CERTIFICATE-----
MIIE9zCCAt+gAwIBAgIBATANBgkqhkiG9w0BAQsFADB1MQswCQYDVQQGEwJCRTER
MA8GA1UECAwIQnJ1c3NlbHMxETAPBgNVBAcMCEJydXNzZWxzMQswCQYDVQQKDAJD
QTEMMAoGA1UECwwDVlVCMQswCQYDVQQDDAJDQTEYMBYGCSqGSIb3DQEJARYJY2FA
dnViLmJlMB4XDTE3MDUwMTE2MzE1OVoXDTIwMDEyNjE2MzE1OVowTzELMAkGA1UE
BhMCQkUxETAPBgNVBAgMCEJydXNzZWxzMREwDwYDVQQHDAhCcnVzc2VsczEMMAoG
A1UECgwDVlVCMQwwCgYDVQQDDANHT1YwggEiMA0GCSqGSIb3DQEBAQUAA4IBDwAw
ggEKAoIBAQDO6643Ll4gNV8KCiGvETACBIIm7m2fFXyk4H58vQgmJw1bpqbMhoOX
5yIxykISMPWoyzEn/24e3J087IakUfJCj/qQ9BoZ1xkcUSYOAvB+fJVPmxvYpinv
RFTcbYWZkScEcbm+3h7HhmcTZzhB9fOlDTd5NI8sUCtq0m8+0zIx3yqrcr/2OAxE
RPLZzE1AUC5k9LEqpJ/qsPa5Hdyf3h70aCuuc8EPldWlyIrmzRkgYhKCOTwnXgLr
o6wot5nuBbGUh8OWDLBv+3Jv2AaIsgsuQK987wLbSRYggmRY3n3sGMDNMz7Fowvl
cBfLMjbBaUEP6da6+0a3va/sg6bkckNVAgMBAAGjgbcwgbQwHQYDVR0OBBYEFELU
zyDkl8Oznev/w/zVKf9M/VW9MB8GA1UdIwQYMBaAFMWGALz/TY4smYtSEnig13Cw
GHMcMAkGA1UdEwQCMAAwCwYDVR0PBAQDAgWgMCwGA1UdEQQlMCOCCWxvY2FsaG9z
dIcEfwAAAYcQAAAAAAAAAAAAAAAAAAAAATAsBglghkgBhvhCAQ0EHxYdT3BlblNT
TCBHZW5lcmF0ZWQgQ2VydGlmaWNhdGUwDQYJKoZIhvcNAQELBQADggIBAD0V6HQG
yHLJNxpq3er10LX1NkIXaxQ+oXArqcWFrCTco2dldITq1woIwGzxCFrTgwGGIq5b
7x7E677VBySwFmLh/g3n/TFM5sL36x0hkKFLNxvFaYuhyaf2zvwdd01Ff7ZYNVxq
ollxhNvTfokLtpkCs56PHZmBMR5+OMZxbG01MEQhkJvuMBbPw0ziagC2QzefItQB
UTKkrm4ne1WsJ7ttMVHzWGix6B+pH4EncSyEHGArd8PCrU1mpbqtOKMMQq6IqBb7
IaCoqviyBAwALZauRNRqesC0ph/M9pvsGOfSeeG1NeReaJ2WsIA+1mj8rNVt/7we
9oQd4smmmOqHU5BLmIlEgy7k0cqu5yIEwjKLt9hHBDMuzLAe+X5rx+Kt3FiZR5zM
2PKnRDL/RyZ1+OE2wz97pFipai+dRRgl4CIooZUIasgz/ND5HiOn2yWagyQQ4r2G
zzv4vovJFpmGfr5ImMm8oNiRgvhBrh/TJGoIpK4o9nn7EUX1P4wECgtJ5JOr0YIe
x6sWGw7jwv9cW9I6qO7iET2zRlSYns8ucc42VtYXKM0+fthyGuSFxUTbcAz2L7Gm
w1Yon5NS+tH43fvt7paInOKo6t8ekfXoVR0sbYALTLFb9Wg7UNBB+cDk3yPMJ9QO
CXbaT06ucyaKVctSu6aJFzDQqUWGVc127cKQ
-----END CERTIFICATE-----
