Certificate:
    Data:
        Version: 3 (0x2)
        Serial Number: 3 (0x3)
    Signature Algorithm: sha256WithRSAEncryption
        Issuer: C=BE, ST=Brussels, L=Brussels, O=CA, OU=VUB, CN=CA/emailAddress=ca@vub.be
        Validity
            Not Before: May  7 13:43:01 2017 GMT
            Not After : Feb  1 13:43:01 2020 GMT
        Subject: C=BE, ST=Brussels, L=Brussels, O=VUB, CN=KINEPOLIS/domain=default
        Subject Public Key Info:
            Public Key Algorithm: rsaEncryption
                Public-Key: (2048 bit)
                Modulus:
                    00:cd:3a:13:55:a2:74:37:64:ff:56:63:f7:c2:e3:
                    71:2c:1f:a1:b0:00:da:7b:18:a4:2e:94:87:4a:5d:
                    d7:49:c2:2b:63:d9:af:15:4c:47:e5:23:50:90:47:
                    38:1d:e7:af:f5:e5:77:b4:26:55:a1:dd:11:e2:bf:
                    31:53:17:d9:52:b5:e5:23:a3:eb:b2:ac:f0:1c:dd:
                    46:98:cf:10:64:6d:1b:49:3b:0f:fa:6a:78:24:9b:
                    56:74:44:bc:27:ac:ee:a1:96:1a:20:a2:58:f9:1f:
                    d6:d3:03:e7:93:40:25:26:a0:2b:0a:ac:d6:fb:97:
                    50:fb:09:e7:b2:cc:0a:06:42:78:a5:4e:e9:d9:ed:
                    f2:02:b2:a0:67:dc:7f:d1:59:ac:d5:73:b7:7c:7e:
                    12:32:2f:0c:5b:99:f3:c6:56:24:3a:42:c1:7c:6f:
                    9a:76:40:d7:22:45:d2:35:18:56:bc:65:b2:72:83:
                    56:8b:02:87:df:f8:27:95:14:59:56:7c:07:1b:78:
                    89:28:b7:1e:23:a1:1f:5d:63:82:6f:ea:3a:24:e8:
                    75:66:48:cf:b1:42:1c:3d:8e:71:e4:22:e3:20:48:
                    04:26:d2:57:c1:56:44:56:65:ca:5e:c4:4f:2a:23:
                    ec:d4:d8:ee:81:cc:fe:42:47:bf:48:f4:31:b0:e1:
                    bd:99
                Exponent: 65537 (0x10001)
        X509v3 extensions:
            X509v3 Subject Key Identifier: 
                FE:9B:6E:F8:CA:59:E4:73:25:EF:B7:DD:D5:1E:64:01:54:4B:4C:6F
            X509v3 Authority Key Identifier: 
                keyid:C5:86:00:BC:FF:4D:8E:2C:99:8B:52:12:78:A0:D7:70:B0:18:73:1C

            X509v3 Basic Constraints: 
                CA:FALSE
            X509v3 Key Usage: 
                Digital Signature, Key Encipherment
            X509v3 Subject Alternative Name: 
                DNS:localhost, IP Address:127.0.0.1, IP Address:0:0:0:0:0:0:0:1
            Netscape Comment: 
                OpenSSL Generated Certificate
    Signature Algorithm: sha256WithRSAEncryption
         d4:a5:c2:11:66:91:aa:f9:1d:20:3b:7b:1b:c4:4e:8a:e9:f7:
         4c:00:11:6b:43:1c:68:c1:8c:8e:06:78:b6:ea:66:ca:83:79:
         42:f0:d8:97:c6:00:96:e0:1f:1a:64:a8:db:3e:46:27:4a:d9:
         43:8c:de:95:8e:96:22:74:ce:76:28:3d:3e:b1:b2:be:02:aa:
         dc:78:06:ef:b7:3e:72:40:25:13:b8:ed:d8:4a:4a:fe:44:b4:
         a3:c6:6b:2c:66:b1:c6:77:32:2c:9f:44:ca:4a:0c:5a:83:b7:
         d6:5f:21:35:81:11:7f:4f:43:e0:cc:aa:a0:b5:06:05:9c:a1:
         07:0b:38:71:2b:9d:0e:ff:f1:50:4d:03:f0:57:03:99:81:6c:
         67:ec:e5:29:61:d4:cc:56:a8:7b:4e:fa:c8:c7:86:fc:4a:67:
         73:7a:29:b6:96:49:5f:dd:52:17:c0:be:3b:1d:54:80:9b:be:
         ef:d5:3f:87:fb:9e:9f:fc:5a:d9:c0:f0:20:04:27:bd:3e:ac:
         b4:63:87:55:aa:91:2a:0a:47:24:b3:32:85:56:c6:99:7a:41:
         a9:ce:3a:60:17:89:53:25:eb:f4:a3:6a:65:7f:fd:64:2a:02:
         e5:87:f1:09:a4:e3:fa:92:18:b2:bb:05:cb:69:bd:84:98:69:
         7a:5a:55:2b:e6:4f:cc:c6:df:6d:8f:b4:13:26:82:34:9f:a5:
         06:e0:1c:57:d5:19:61:13:42:d6:65:50:85:82:26:89:c6:06:
         31:de:4c:77:32:93:67:46:8c:89:e5:83:65:b0:c5:d9:9b:2a:
         a4:d2:b4:1f:9d:1b:d1:63:2c:48:70:95:49:55:7f:cf:26:4f:
         48:8c:ff:48:2b:d2:fb:62:81:7b:e7:35:1f:1a:85:8c:a6:16:
         cd:ba:95:f7:84:e5:64:b0:3e:9f:b0:b7:f6:96:bc:cc:90:d6:
         93:c3:b1:77:0b:3b:c4:a8:75:41:21:ba:22:9c:8c:ad:e2:4d:
         9d:e1:b6:7e:bd:9c:73:45:02:49:9f:c8:da:3a:57:b1:da:39:
         b4:04:c6:9e:de:72:7a:a6:22:cf:7b:31:62:3c:8a:79:af:68:
         a9:44:26:b7:4d:d9:06:86:6c:b5:25:07:e8:f4:ef:7d:db:d7:
         d0:1f:44:14:01:54:f9:e8:8d:e2:19:26:7b:04:d7:a9:1a:40:
         a3:a6:c2:bd:ce:d6:4c:12:76:d7:60:00:5a:e5:f4:1b:c0:09:
         49:69:af:c3:d9:23:be:70:ac:92:f6:3a:2a:75:8a:0a:ee:fa:
         38:fb:c2:2f:20:81:05:bf:08:58:6d:22:2d:f2:f7:5b:9c:07:
         90:cc:23:4a:e2:5e:28:d1
-----BEGIN CERTIFICATE-----
MIIFFjCCAv6gAwIBAgIBAzANBgkqhkiG9w0BAQsFADB1MQswCQYDVQQGEwJCRTER
MA8GA1UECAwIQnJ1c3NlbHMxETAPBgNVBAcMCEJydXNzZWxzMQswCQYDVQQKDAJD
QTEMMAoGA1UECwwDVlVCMQswCQYDVQQDDAJDQTEYMBYGCSqGSIb3DQEJARYJY2FA
dnViLmJlMB4XDTE3MDUwNzEzNDMwMVoXDTIwMDIwMTEzNDMwMVowbjELMAkGA1UE
BhMCQkUxETAPBgNVBAgMCEJydXNzZWxzMREwDwYDVQQHDAhCcnVzc2VsczEMMAoG
A1UECgwDVlVCMRIwEAYDVQQDDAlLSU5FUE9MSVMxFzAVBgoJkiaJk/IsZAQNDAdk
ZWZhdWx0MIIBIjANBgkqhkiG9w0BAQEFAAOCAQ8AMIIBCgKCAQEAzToTVaJ0N2T/
VmP3wuNxLB+hsADaexikLpSHSl3XScIrY9mvFUxH5SNQkEc4Heev9eV3tCZVod0R
4r8xUxfZUrXlI6PrsqzwHN1GmM8QZG0bSTsP+mp4JJtWdES8J6zuoZYaIKJY+R/W
0wPnk0AlJqArCqzW+5dQ+wnnsswKBkJ4pU7p2e3yArKgZ9x/0Vms1XO3fH4SMi8M
W5nzxlYkOkLBfG+adkDXIkXSNRhWvGWycoNWiwKH3/gnlRRZVnwHG3iJKLceI6Ef
XWOCb+o6JOh1ZkjPsUIcPY5x5CLjIEgEJtJXwVZEVmXKXsRPKiPs1Njugcz+Qke/
SPQxsOG9mQIDAQABo4G3MIG0MB0GA1UdDgQWBBT+m274ylnkcyXvt93VHmQBVEtM
bzAfBgNVHSMEGDAWgBTFhgC8/02OLJmLUhJ4oNdwsBhzHDAJBgNVHRMEAjAAMAsG
A1UdDwQEAwIFoDAsBgNVHREEJTAjgglsb2NhbGhvc3SHBH8AAAGHEAAAAAAAAAAA
AAAAAAAAAAEwLAYJYIZIAYb4QgENBB8WHU9wZW5TU0wgR2VuZXJhdGVkIENlcnRp
ZmljYXRlMA0GCSqGSIb3DQEBCwUAA4ICAQDUpcIRZpGq+R0gO3sbxE6K6fdMABFr
QxxowYyOBni26mbKg3lC8NiXxgCW4B8aZKjbPkYnStlDjN6VjpYidM52KD0+sbK+
AqrceAbvtz5yQCUTuO3YSkr+RLSjxmssZrHGdzIsn0TKSgxag7fWXyE1gRF/T0Pg
zKqgtQYFnKEHCzhxK50O//FQTQPwVwOZgWxn7OUpYdTMVqh7TvrIx4b8Smdzeim2
lklf3VIXwL47HVSAm77v1T+H+56f/FrZwPAgBCe9Pqy0Y4dVqpEqCkckszKFVsaZ
ekGpzjpgF4lTJev0o2plf/1kKgLlh/EJpOP6khiyuwXLab2EmGl6WlUr5k/Mxt9t
j7QTJoI0n6UG4BxX1RlhE0LWZVCFgiaJxgYx3kx3MpNnRoyJ5YNlsMXZmyqk0rQf
nRvRYyxIcJVJVX/PJk9IjP9IK9L7YoF75zUfGoWMphbNupX3hOVksD6fsLf2lrzM
kNaTw7F3CzvEqHVBIboinIyt4k2d4bZ+vZxzRQJJn8jaOlex2jm0BMae3nJ6piLP
ezFiPIp5r2ipRCa3TdkGhmy1JQfo9O9929fQH0QUAVT56I3iGSZ7BNepGkCjpsK9
ztZMEnbXYABa5fQbwAlJaa/D2SO+cKyS9joqdYoK7vo4+8IvIIEFvwhYbSIt8vdb
nAeQzCNK4l4o0Q==
-----END CERTIFICATE-----
