Certificate:
    Data:
        Version: 3 (0x2)
        Serial Number: 4 (0x4)
    Signature Algorithm: sha256WithRSAEncryption
        Issuer: C=BE, ST=Brussels, L=Brussels, O=CA, OU=VUB, CN=CA/emailAddress=ca@vub.be
        Validity
            Not Before: May  7 13:43:27 2017 GMT
            Not After : Feb  1 13:43:27 2020 GMT
        Subject: C=BE, ST=Brussels, L=Brussels, O=VUB, CN=PLANCKENDAEL/domain=default
        Subject Public Key Info:
            Public Key Algorithm: rsaEncryption
                Public-Key: (2048 bit)
                Modulus:
                    00:e1:58:c9:59:ce:76:08:2c:1c:38:0c:5f:88:75:
                    9e:89:57:64:b2:d6:cf:1b:d6:c1:88:88:1d:a3:d6:
                    c2:ae:75:45:fa:b2:52:f3:2e:bf:e0:09:63:af:37:
                    cb:dd:60:46:48:72:16:b4:a3:58:df:60:a4:ce:d8:
                    d6:92:80:ab:59:f9:5c:be:69:4f:f0:41:f2:e5:29:
                    a5:c4:f8:04:0d:9e:b8:de:07:68:6b:24:ea:e0:6a:
                    d1:72:58:f1:27:b2:c6:11:90:2f:25:91:9f:c6:17:
                    48:fa:02:0e:59:8f:2d:f4:89:21:64:99:a3:0d:1b:
                    5c:8d:44:c5:bf:aa:8b:6a:d5:85:e7:8d:d0:ca:85:
                    19:c0:bb:f6:9e:27:4b:0c:ca:18:3c:43:72:0a:da:
                    cd:b1:ab:ef:87:a2:6e:6b:21:7f:23:15:77:b3:57:
                    f6:2d:51:4a:52:7c:fe:2e:12:1b:f2:ae:5d:5e:32:
                    08:53:6c:f8:d3:aa:1c:74:04:c0:76:cb:3a:65:d4:
                    c6:26:a0:34:31:6d:cf:a0:42:1d:6f:97:88:a8:14:
                    18:bb:0e:60:ae:82:d7:de:a5:c5:b9:34:bb:91:c4:
                    1c:1c:30:24:a3:6b:3f:75:34:f7:ad:6c:29:df:5f:
                    fc:67:89:52:df:98:12:52:3d:8b:b3:54:7f:fe:28:
                    47:79
                Exponent: 65537 (0x10001)
        X509v3 extensions:
            X509v3 Subject Key Identifier: 
                77:FC:78:61:E2:D8:BF:13:41:46:C0:DF:02:2C:A6:14:70:49:99:4A
            X509v3 Authority Key Identifier: 
                keyid:C5:86:00:BC:FF:4D:8E:2C:99:8B:52:12:78:A0:D7:70:B0:18:73:1C

            X509v3 Basic Constraints: 
                CA:FALSE
            X509v3 Key Usage: 
                Digital Signature, Key Encipherment
            X509v3 Subject Alternative Name: 
                DNS:localhost, IP Address:127.0.0.1, IP Address:0:0:0:0:0:0:0:1
            Netscape Comment: 
                OpenSSL Generated Certificate
    Signature Algorithm: sha256WithRSAEncryption
         cc:d8:06:84:28:e2:86:6a:e0:6e:69:bf:ea:10:1b:8b:a0:dd:
         ea:a0:1f:84:ff:4e:ab:80:f5:40:71:a2:24:d5:da:13:25:ab:
         60:3c:0c:69:a1:69:3b:da:4f:4d:ca:49:0d:87:7b:b7:ed:49:
         c1:54:11:88:83:e7:a9:8d:bf:39:93:1d:be:bf:07:ed:58:c7:
         33:be:e2:b8:f6:2d:2c:c3:50:f6:02:65:fa:70:83:c4:0d:97:
         8d:88:2f:9d:3a:06:a5:95:d8:45:70:25:c8:ac:4b:37:85:a5:
         9f:e9:39:53:e5:3d:3e:35:4a:2a:62:f8:a7:d7:ea:f0:91:47:
         5a:16:9d:b8:05:2c:53:20:02:3a:0d:bc:d3:6d:cb:48:44:c6:
         46:7e:0d:99:a6:ad:3c:c2:70:b3:70:26:c6:de:31:c7:d3:1a:
         f5:68:9d:85:69:1a:63:0b:93:4c:5c:e6:5c:1c:b4:71:6a:fb:
         09:4f:9b:08:66:42:ff:cd:da:85:88:47:fb:e9:6b:8f:e6:ad:
         c8:b7:03:0a:f6:b5:e7:61:c5:c3:96:9a:e3:77:6c:88:03:c3:
         0e:67:51:3f:e7:66:40:4e:bc:70:d9:8f:e4:c5:71:44:5a:57:
         75:d0:a4:df:bc:92:b1:68:49:13:a0:d5:1f:be:09:df:0b:36:
         70:76:75:88:16:36:c1:69:70:8b:af:41:d4:9c:3a:b0:32:81:
         3a:fc:f7:dc:5c:79:0e:bd:08:18:f8:a2:02:7f:cc:57:74:e8:
         73:fc:c0:0e:7f:ab:ef:b3:6c:64:50:f3:5b:2a:ea:17:55:f9:
         35:a7:2b:4f:96:ec:e2:b6:38:d9:7c:a1:23:19:da:6b:2e:f9:
         6e:37:87:c0:33:1f:fd:64:3e:28:a7:de:7e:23:5a:90:a1:d4:
         5b:cd:26:da:19:77:ef:23:5c:fa:35:95:97:b1:d5:cb:df:55:
         01:3e:49:bc:3b:ed:94:3a:43:01:da:44:80:80:47:8c:69:b0:
         f8:ea:2a:a8:3e:87:e3:24:0b:65:50:a0:40:52:52:a7:0e:8a:
         b3:88:d6:e8:37:a5:d0:84:f2:fd:dd:2a:32:0a:60:3a:e3:21:
         54:65:e1:16:f2:70:4e:ad:ae:4f:b8:0a:e1:74:9f:c5:f1:6b:
         fe:f1:37:ca:09:96:5e:ca:f7:6f:be:12:00:c1:6a:1e:af:8a:
         75:8d:a6:cb:0d:88:28:0d:6a:d7:51:9e:03:a8:35:7f:3b:51:
         95:f6:6e:f7:11:f5:72:25:9d:34:bb:28:ec:1d:8b:9f:23:7e:
         b5:26:5b:08:b4:9c:83:d0:f2:b1:a8:c4:1d:37:0c:6e:ef:fb:
         05:b2:e9:0d:b8:70:c0:52
-----BEGIN CERTIFICATE-----
MIIFGTCCAwGgAwIBAgIBBDANBgkqhkiG9w0BAQsFADB1MQswCQYDVQQGEwJCRTER
MA8GA1UECAwIQnJ1c3NlbHMxETAPBgNVBAcMCEJydXNzZWxzMQswCQYDVQQKDAJD
QTEMMAoGA1UECwwDVlVCMQswCQYDVQQDDAJDQTEYMBYGCSqGSIb3DQEJARYJY2FA
dnViLmJlMB4XDTE3MDUwNzEzNDMyN1oXDTIwMDIwMTEzNDMyN1owcTELMAkGA1UE
BhMCQkUxETAPBgNVBAgMCEJydXNzZWxzMREwDwYDVQQHDAhCcnVzc2VsczEMMAoG
A1UECgwDVlVCMRUwEwYDVQQDDAxQTEFOQ0tFTkRBRUwxFzAVBgoJkiaJk/IsZAQN
DAdkZWZhdWx0MIIBIjANBgkqhkiG9w0BAQEFAAOCAQ8AMIIBCgKCAQEA4VjJWc52
CCwcOAxfiHWeiVdkstbPG9bBiIgdo9bCrnVF+rJS8y6/4AljrzfL3WBGSHIWtKNY
32CkztjWkoCrWflcvmlP8EHy5SmlxPgEDZ643gdoayTq4GrRcljxJ7LGEZAvJZGf
xhdI+gIOWY8t9IkhZJmjDRtcjUTFv6qLatWF543QyoUZwLv2nidLDMoYPENyCtrN
savvh6JuayF/IxV3s1f2LVFKUnz+LhIb8q5dXjIIU2z406ocdATAdss6ZdTGJqA0
MW3PoEIdb5eIqBQYuw5groLX3qXFuTS7kcQcHDAko2s/dTT3rWwp31/8Z4lS35gS
Uj2Ls1R//ihHeQIDAQABo4G3MIG0MB0GA1UdDgQWBBR3/Hhh4ti/E0FGwN8CLKYU
cEmZSjAfBgNVHSMEGDAWgBTFhgC8/02OLJmLUhJ4oNdwsBhzHDAJBgNVHRMEAjAA
MAsGA1UdDwQEAwIFoDAsBgNVHREEJTAjgglsb2NhbGhvc3SHBH8AAAGHEAAAAAAA
AAAAAAAAAAAAAAEwLAYJYIZIAYb4QgENBB8WHU9wZW5TU0wgR2VuZXJhdGVkIENl
cnRpZmljYXRlMA0GCSqGSIb3DQEBCwUAA4ICAQDM2AaEKOKGauBuab/qEBuLoN3q
oB+E/06rgPVAcaIk1doTJatgPAxpoWk72k9NykkNh3u37UnBVBGIg+epjb85kx2+
vwftWMczvuK49i0sw1D2AmX6cIPEDZeNiC+dOgalldhFcCXIrEs3haWf6TlT5T0+
NUoqYvin1+rwkUdaFp24BSxTIAI6DbzTbctIRMZGfg2Zpq08wnCzcCbG3jHH0xr1
aJ2FaRpjC5NMXOZcHLRxavsJT5sIZkL/zdqFiEf76WuP5q3ItwMK9rXnYcXDlprj
d2yIA8MOZ1E/52ZATrxw2Y/kxXFEWld10KTfvJKxaEkToNUfvgnfCzZwdnWIFjbB
aXCLr0HUnDqwMoE6/PfcXHkOvQgY+KICf8xXdOhz/MAOf6vvs2xkUPNbKuoXVfk1
pytPluzitjjZfKEjGdprLvluN4fAMx/9ZD4op95+I1qQodRbzSbaGXfvI1z6NZWX
sdXL31UBPkm8O+2UOkMB2kSAgEeMabD46iqoPofjJAtlUKBAUlKnDoqziNboN6XQ
hPL93SoyCmA64yFUZeEW8nBOra5PuArhdJ/F8Wv+8TfKCZZeyvdvvhIAwWoer4p1
jabLDYgoDWrXUZ4DqDV/O1GV9m73EfVyJZ00uyjsHYufI361JlsItJyD0PKxqMQd
Nwxu7/sFsukNuHDAUg==
-----END CERTIFICATE-----
