Certificate:
    Data:
        Version: 3 (0x2)
        Serial Number: 3 (0x3)
    Signature Algorithm: sha256WithRSAEncryption
        Issuer: C=BE, ST=Brussels, L=Brussels, O=CA, OU=VUB, CN=CA/emailAddress=ca@vub.be
        Validity
            Not Before: May  7 14:32:12 2017 GMT
            Not After : Feb  1 14:32:12 2020 GMT
        Subject: C=BE, ST=Brussels, L=Brussels, O=VUB, CN=STUDENTPORTAL/domain=eGov
        Subject Public Key Info:
            Public Key Algorithm: rsaEncryption
                Public-Key: (512 bit)
                Modulus:
                    00:b8:2f:b9:3a:e7:04:75:e7:78:2b:a3:87:8b:f4:
                    4d:62:74:e3:41:ab:0d:c8:e0:f6:dc:84:23:64:9e:
                    05:fd:c3:f4:09:fc:31:43:4f:22:0b:7c:a0:0e:8e:
                    ab:65:b6:15:d0:78:10:a3:9d:00:27:1b:04:6b:2d:
                    93:2c:bd:12:79
                Exponent: 65537 (0x10001)
        X509v3 extensions:
            X509v3 Subject Key Identifier: 
                0A:1C:AB:67:43:2E:ED:3E:4F:F6:34:73:98:2B:DE:AB:57:89:DC:15
            X509v3 Authority Key Identifier: 
                keyid:FA:FF:2F:73:86:E7:AF:24:F4:6E:A5:EA:73:4F:70:3C:D8:E3:40:7B

            X509v3 Basic Constraints: 
                CA:FALSE
            X509v3 Key Usage: 
                Digital Signature, Key Encipherment
            X509v3 Subject Alternative Name: 
                DNS:localhost, IP Address:127.0.0.1, IP Address:0:0:0:0:0:0:0:1
            Netscape Comment: 
                OpenSSL Generated Certificate
    Signature Algorithm: sha256WithRSAEncryption
         71:86:5d:b2:ee:a0:1f:7b:ee:9d:b9:9f:04:0b:e7:ac:ba:e4:
         f7:4e:ae:ab:93:aa:0b:3e:75:fd:8a:fc:af:85:8e:8c:cc:cb:
         9d:e8:c2:b3:2c:2e:bc:37:b1:c7:a1:3d:d3:71:66:49:09:b9:
         6f:d7:bf:70:03:26:2c:c2:54:c0
-----BEGIN CERTIFICATE-----
MIICjTCCAjegAwIBAgIBAzANBgkqhkiG9w0BAQsFADB1MQswCQYDVQQGEwJCRTER
MA8GA1UECAwIQnJ1c3NlbHMxETAPBgNVBAcMCEJydXNzZWxzMQswCQYDVQQKDAJD
QTEMMAoGA1UECwwDVlVCMQswCQYDVQQDDAJDQTEYMBYGCSqGSIb3DQEJARYJY2FA
dnViLmJlMB4XDTE3MDUwNzE0MzIxMloXDTIwMDIwMTE0MzIxMlowbzELMAkGA1UE
BhMCQkUxETAPBgNVBAgMCEJydXNzZWxzMREwDwYDVQQHDAhCcnVzc2VsczEMMAoG
A1UECgwDVlVCMRYwFAYDVQQDDA1TVFVERU5UUE9SVEFMMRQwEgYKCZImiZPyLGQE
DQwEZUdvdjBcMA0GCSqGSIb3DQEBAQUAA0sAMEgCQQC4L7k65wR153gro4eL9E1i
dONBqw3I4PbchCNkngX9w/QJ/DFDTyILfKAOjqtlthXQeBCjnQAnGwRrLZMsvRJ5
AgMBAAGjgbcwgbQwHQYDVR0OBBYEFAocq2dDLu0+T/Y0c5gr3qtXidwVMB8GA1Ud
IwQYMBaAFPr/L3OG568k9G6l6nNPcDzY40B7MAkGA1UdEwQCMAAwCwYDVR0PBAQD
AgWgMCwGA1UdEQQlMCOCCWxvY2FsaG9zdIcEfwAAAYcQAAAAAAAAAAAAAAAAAAAA
ATAsBglghkgBhvhCAQ0EHxYdT3BlblNTTCBHZW5lcmF0ZWQgQ2VydGlmaWNhdGUw
DQYJKoZIhvcNAQELBQADQQBxhl2y7qAfe+6duZ8EC+esuuT3Tq6rk6oLPnX9ivyv
hY6MzMud6MKzLC68N7HHoT3TcWZJCblv179wAyYswlTA
-----END CERTIFICATE-----
-----BEGIN ENCRYPTED PRIVATE KEY-----
MIIBnjBABgkqhkiG9w0BBQ0wMzAbBgkqhkiG9w0BBQwwDgQI2hsBBvfSzPkCAggA
MBQGCCqGSIb3DQMHBAhgLGkFxVlVawSCAVh/FlXUB1N6Wv67gjFPfPy6D8DGCTcz
JxjFYz2+oCKZHcwNXS7C8rJ7wn/ig6VJhm7HBVLeoRmVC1n4nlgvlih15gHGA4su
nVRmcaqGmbNAdZFJZOvUEJk63oqRAn+FQNdteo4Q1CFT8O+Hd9wUNm1jXNVoK8/G
4GM9465wSs1BS+YhVDaHc1n4ivq1/lmijZR8cUMu0hE/eIx0z1dGtbouEw5+Opem
3gnHvS9nacWnkLl0xE/6NJER8A0fdKyj/YlJ6wUy0EckpruTsWB7wKaakxzmmmcl
BU2n712U5F6Kzgg5h8AvOk5O22qFyCbzkt5JTjRxa64Oa01bYg8U0IUJNLXbRer6
fLzzBIE2vcc6GmsgooK6j28OZm9gcct6kWEzQhL7R5/lWSe28CSX7UBH3D+VhVDl
GaSgZMr/hWqB7/S3sai9C3o+o5luIiXKxcOEWK2WhmNfxg==
-----END ENCRYPTED PRIVATE KEY-----
