Certificate:
    Data:
        Version: 3 (0x2)
        Serial Number: 2 (0x2)
    Signature Algorithm: sha256WithRSAEncryption
        Issuer: C=BE, ST=Brussels, L=Brussels, O=CA, OU=VUB, CN=CA/emailAddress=ca@vub.be
        Validity
            Not Before: May  7 14:32:03 2017 GMT
            Not After : Feb  1 14:32:03 2020 GMT
        Subject: C=BE, ST=Brussels, L=Brussels, O=VUB, CN=TAXONWEB/domain=eGov
        Subject Public Key Info:
            Public Key Algorithm: rsaEncryption
                Public-Key: (512 bit)
                Modulus:
                    00:e1:09:d2:db:08:a6:37:ca:21:af:ba:34:af:47:
                    8d:5b:34:38:9b:d5:97:49:bd:19:0b:b0:ae:7b:cf:
                    2d:85:14:aa:f0:f8:9f:47:f9:e3:d7:16:86:d1:64:
                    37:87:bb:3d:f0:6c:07:c8:9f:39:f7:dd:1f:78:f0:
                    2e:15:b5:d8:a9
                Exponent: 65537 (0x10001)
        X509v3 extensions:
            X509v3 Subject Key Identifier: 
                1C:C2:99:FF:F8:82:27:00:5E:DB:DB:31:44:11:E9:C4:A7:9D:23:43
            X509v3 Authority Key Identifier: 
                keyid:FA:FF:2F:73:86:E7:AF:24:F4:6E:A5:EA:73:4F:70:3C:D8:E3:40:7B

            X509v3 Basic Constraints: 
                CA:FALSE
            X509v3 Key Usage: 
                Digital Signature, Key Encipherment
            X509v3 Subject Alternative Name: 
                DNS:localhost, IP Address:127.0.0.1, IP Address:0:0:0:0:0:0:0:1
            Netscape Comment: 
                OpenSSL Generated Certificate
    Signature Algorithm: sha256WithRSAEncryption
         11:aa:28:39:4f:ed:60:b5:7f:36:d4:a7:b1:8a:3f:68:e3:b2:
         33:d9:bd:6f:cf:c9:60:2f:95:8c:af:33:0c:47:68:86:92:c6:
         7a:82:25:28:f6:cc:7d:63:99:55:35:65:ff:e1:5c:1b:bb:0d:
         1d:24:c9:71:4c:08:ae:d0:88:26
-----BEGIN CERTIFICATE-----
MIICiDCCAjKgAwIBAgIBAjANBgkqhkiG9w0BAQsFADB1MQswCQYDVQQGEwJCRTER
MA8GA1UECAwIQnJ1c3NlbHMxETAPBgNVBAcMCEJydXNzZWxzMQswCQYDVQQKDAJD
QTEMMAoGA1UECwwDVlVCMQswCQYDVQQDDAJDQTEYMBYGCSqGSIb3DQEJARYJY2FA
dnViLmJlMB4XDTE3MDUwNzE0MzIwM1oXDTIwMDIwMTE0MzIwM1owajELMAkGA1UE
BhMCQkUxETAPBgNVBAgMCEJydXNzZWxzMREwDwYDVQQHDAhCcnVzc2VsczEMMAoG
A1UECgwDVlVCMREwDwYDVQQDDAhUQVhPTldFQjEUMBIGCgmSJomT8ixkBA0MBGVH
b3YwXDANBgkqhkiG9w0BAQEFAANLADBIAkEA4QnS2wimN8ohr7o0r0eNWzQ4m9WX
Sb0ZC7Cue88thRSq8PifR/nj1xaG0WQ3h7s98GwHyJ85990fePAuFbXYqQIDAQAB
o4G3MIG0MB0GA1UdDgQWBBQcwpn/+IInAF7b2zFEEenEp50jQzAfBgNVHSMEGDAW
gBT6/y9zhuevJPRupepzT3A82ONAezAJBgNVHRMEAjAAMAsGA1UdDwQEAwIFoDAs
BgNVHREEJTAjgglsb2NhbGhvc3SHBH8AAAGHEAAAAAAAAAAAAAAAAAAAAAEwLAYJ
YIZIAYb4QgENBB8WHU9wZW5TU0wgR2VuZXJhdGVkIENlcnRpZmljYXRlMA0GCSqG
SIb3DQEBCwUAA0EAEaooOU/tYLV/NtSnsYo/aOOyM9m9b8/JYC+VjK8zDEdohpLG
eoIlKPbMfWOZVTVl/+FcG7sNHSTJcUwIrtCIJg==
-----END CERTIFICATE-----
-----BEGIN ENCRYPTED PRIVATE KEY-----
MIIBpjBABgkqhkiG9w0BBQ0wMzAbBgkqhkiG9w0BBQwwDgQIDatlTLuc9AcCAggA
MBQGCCqGSIb3DQMHBAgNy73zzElbSQSCAWCsymkQryvnGZ6jvSYG38K5WRDCkHdT
OhTwfVxc6fqsGwUXre4yxu9kpqpd2ZTVO2j3o7nuJYhdfkVyRbOmodclwZMC3Pnm
F0ZmqsNhkWMDTGXZKkzPAl+4xjxekvKD8f+4zqW41Ti53yentuVHfQrOMtMlxDrl
oY3853JAAGzLKE8cuWU9vS+fuq0I4YLdo3cH30Ci6m0V9Y0eqxvqMhZgT7rh4hvu
1D7+V63hCao/VJzqK33K7jYA6Qn/58ZBaw2FWRWlRrTMojRy4GBjTPpyHT1ZNsgj
Wn5/mpiqMv687adn2ah+kF2IbUbz2LL3u6DH36Ee3dUh+lZ4QQgi/xtyb5t31/z7
MWikCVXJqyVh7YZbGsEEus+28KezY4iXVTbA/ImJoSSOX6ULBd/FwmoZhP4c6ghn
qbsgVz5CbeJle7HNlBiBsUsXcjpHKFGCTpt/fgtEsH/YMNWjQ3hAMEFI
-----END ENCRYPTED PRIVATE KEY-----
