Certificate:
    Data:
        Version: 3 (0x2)
        Serial Number: 3 (0x3)
    Signature Algorithm: sha1WithRSAEncryption
        Issuer: C=BE, ST=Brussels, L=Brussels, O=CA, OU=VUB, CN=CA/emailAddress=ca@vub.be
        Validity
            Not Before: May 18 13:13:30 2017 GMT
            Not After : Feb 12 13:13:30 2020 GMT
        Subject: C=BE, ST=Brussels, L=Brussels, O=VUB, CN=STUDENTPORTAL/domain=eGov
        Subject Public Key Info:
            Public Key Algorithm: rsaEncryption
                Public-Key: (512 bit)
                Modulus:
                    00:a6:85:1c:9b:0b:79:d7:5f:ff:4c:52:67:d4:33:
                    31:72:23:87:bb:37:cc:c3:15:7f:74:64:51:28:ec:
                    32:c8:d8:8d:20:16:7c:68:9e:cf:82:e4:80:a8:fe:
                    d5:ac:5f:41:f5:0e:45:fd:6a:0f:84:f6:50:b1:90:
                    b4:07:aa:bd:ef
                Exponent: 65537 (0x10001)
        X509v3 extensions:
            X509v3 Subject Key Identifier: 
                F6:76:60:B6:A5:B0:FE:8C:4A:8B:DE:B2:68:E6:67:ED:80:EC:50:B0
            X509v3 Authority Key Identifier: 
                keyid:00:82:A0:BE:DC:08:8F:D0:44:D1:FE:31:A0:27:2D:C0:06:C4:9D:6B

            X509v3 Basic Constraints: 
                CA:FALSE
            X509v3 Key Usage: 
                Digital Signature, Key Encipherment
            X509v3 Subject Alternative Name: 
                DNS:localhost, IP Address:127.0.0.1, IP Address:0:0:0:0:0:0:0:1
            Netscape Comment: 
                OpenSSL Generated Certificate
    Signature Algorithm: sha1WithRSAEncryption
         54:15:f9:93:07:94:a1:56:86:50:84:19:a7:ca:d5:f8:79:ea:
         8f:82:af:a8:c9:cf:92:be:b5:62:14:03:21:23:21:11:e6:91:
         ce:86:e9:58:69:06:1d:87:2d:c8:4b:f8:a4:3d:93:9e:59:b9:
         b4:f4:78:a3:45:de:53:48:98:20
-----BEGIN CERTIFICATE-----
MIICjTCCAjegAwIBAgIBAzANBgkqhkiG9w0BAQUFADB1MQswCQYDVQQGEwJCRTER
MA8GA1UECAwIQnJ1c3NlbHMxETAPBgNVBAcMCEJydXNzZWxzMQswCQYDVQQKDAJD
QTEMMAoGA1UECwwDVlVCMQswCQYDVQQDDAJDQTEYMBYGCSqGSIb3DQEJARYJY2FA
dnViLmJlMB4XDTE3MDUxODEzMTMzMFoXDTIwMDIxMjEzMTMzMFowbzELMAkGA1UE
BhMCQkUxETAPBgNVBAgMCEJydXNzZWxzMREwDwYDVQQHDAhCcnVzc2VsczEMMAoG
A1UECgwDVlVCMRYwFAYDVQQDDA1TVFVERU5UUE9SVEFMMRQwEgYKCZImiZPyLGQE
DQwEZUdvdjBcMA0GCSqGSIb3DQEBAQUAA0sAMEgCQQCmhRybC3nXX/9MUmfUMzFy
I4e7N8zDFX90ZFEo7DLI2I0gFnxons+C5ICo/tWsX0H1DkX9ag+E9lCxkLQHqr3v
AgMBAAGjgbcwgbQwHQYDVR0OBBYEFPZ2YLalsP6MSovesmjmZ+2A7FCwMB8GA1Ud
IwQYMBaAFACCoL7cCI/QRNH+MaAnLcAGxJ1rMAkGA1UdEwQCMAAwCwYDVR0PBAQD
AgWgMCwGA1UdEQQlMCOCCWxvY2FsaG9zdIcEfwAAAYcQAAAAAAAAAAAAAAAAAAAA
ATAsBglghkgBhvhCAQ0EHxYdT3BlblNTTCBHZW5lcmF0ZWQgQ2VydGlmaWNhdGUw
DQYJKoZIhvcNAQEFBQADQQBUFfmTB5ShVoZQhBmnytX4eeqPgq+oyc+SvrViFAMh
IyER5pHOhulYaQYdhy3IS/ikPZOeWbm09HijRd5TSJgg
-----END CERTIFICATE-----
