Certificate:
    Data:
        Version: 3 (0x2)
        Serial Number: 4 (0x4)
    Signature Algorithm: sha1WithRSAEncryption
        Issuer: C=BE, ST=Brussels, L=Brussels, O=CA, OU=VUB, CN=CA/emailAddress=ca@vub.be
        Validity
            Not Before: May 18 13:13:41 2017 GMT
            Not After : Feb 12 13:13:41 2020 GMT
        Subject: C=BE, ST=Brussels, L=Brussels, O=VUB, CN=FACEBOOK/domain=SocNet
        Subject Public Key Info:
            Public Key Algorithm: rsaEncryption
                Public-Key: (512 bit)
                Modulus:
                    00:c2:9e:a7:ee:52:e2:fe:b2:92:4f:8a:78:2c:73:
                    b9:15:70:7f:69:ac:00:ee:92:ab:58:d0:c8:99:e8:
                    4b:09:e9:a3:fa:0f:21:34:2a:4a:1d:de:d4:a4:40:
                    21:53:13:20:d3:19:4d:a4:8a:7f:3c:de:d4:25:bc:
                    88:b6:ee:29:a7
                Exponent: 65537 (0x10001)
        X509v3 extensions:
            X509v3 Subject Key Identifier: 
                02:E9:4E:12:56:04:48:8F:C6:42:A8:FD:50:48:4C:C1:85:09:CA:56
            X509v3 Authority Key Identifier: 
                keyid:00:82:A0:BE:DC:08:8F:D0:44:D1:FE:31:A0:27:2D:C0:06:C4:9D:6B

            X509v3 Basic Constraints: 
                CA:FALSE
            X509v3 Key Usage: 
                Digital Signature, Key Encipherment
            X509v3 Subject Alternative Name: 
                DNS:localhost, IP Address:127.0.0.1, IP Address:0:0:0:0:0:0:0:1
            Netscape Comment: 
                OpenSSL Generated Certificate
    Signature Algorithm: sha1WithRSAEncryption
         44:93:d8:96:8c:fc:46:21:12:86:33:28:4d:b1:90:7b:4d:df:
         b8:9b:59:68:56:20:c3:aa:88:4d:db:70:fb:67:4d:1a:3c:2c:
         4f:fb:98:e0:bb:0e:29:e9:a6:d1:4c:93:d5:16:28:6e:07:af:
         8e:e5:8a:eb:07:b3:0a:1b:b2:36
-----BEGIN CERTIFICATE-----
MIICijCCAjSgAwIBAgIBBDANBgkqhkiG9w0BAQUFADB1MQswCQYDVQQGEwJCRTER
MA8GA1UECAwIQnJ1c3NlbHMxETAPBgNVBAcMCEJydXNzZWxzMQswCQYDVQQKDAJD
QTEMMAoGA1UECwwDVlVCMQswCQYDVQQDDAJDQTEYMBYGCSqGSIb3DQEJARYJY2FA
dnViLmJlMB4XDTE3MDUxODEzMTM0MVoXDTIwMDIxMjEzMTM0MVowbDELMAkGA1UE
BhMCQkUxETAPBgNVBAgMCEJydXNzZWxzMREwDwYDVQQHDAhCcnVzc2VsczEMMAoG
A1UECgwDVlVCMREwDwYDVQQDDAhGQUNFQk9PSzEWMBQGCgmSJomT8ixkBA0MBlNv
Y05ldDBcMA0GCSqGSIb3DQEBAQUAA0sAMEgCQQDCnqfuUuL+spJPingsc7kVcH9p
rADukqtY0MiZ6EsJ6aP6DyE0Kkod3tSkQCFTEyDTGU2kin883tQlvIi27imnAgMB
AAGjgbcwgbQwHQYDVR0OBBYEFALpThJWBEiPxkKo/VBITMGFCcpWMB8GA1UdIwQY
MBaAFACCoL7cCI/QRNH+MaAnLcAGxJ1rMAkGA1UdEwQCMAAwCwYDVR0PBAQDAgWg
MCwGA1UdEQQlMCOCCWxvY2FsaG9zdIcEfwAAAYcQAAAAAAAAAAAAAAAAAAAAATAs
BglghkgBhvhCAQ0EHxYdT3BlblNTTCBHZW5lcmF0ZWQgQ2VydGlmaWNhdGUwDQYJ
KoZIhvcNAQEFBQADQQBEk9iWjPxGIRKGMyhNsZB7Td+4m1loViDDqohN23D7Z00a
PCxP+5jguw4p6abRTJPVFihuB6+O5YrrB7MKG7I2
-----END CERTIFICATE-----
