Certificate:
    Data:
        Version: 3 (0x2)
        Serial Number: 5 (0x5)
    Signature Algorithm: sha1WithRSAEncryption
        Issuer: C=BE, ST=Brussels, L=Brussels, O=CA, OU=VUB, CN=CA/emailAddress=ca@vub.be
        Validity
            Not Before: May 18 13:13:51 2017 GMT
            Not After : Feb 12 13:13:51 2020 GMT
        Subject: C=BE, ST=Brussels, L=Brussels, O=VUB, CN=GOOGLE/domain=SocNet
        Subject Public Key Info:
            Public Key Algorithm: rsaEncryption
                Public-Key: (512 bit)
                Modulus:
                    00:dd:76:74:41:90:34:f4:51:1f:cd:ac:1d:01:70:
                    b4:4b:e2:e9:c5:11:d3:29:26:8e:e7:9c:3e:b9:35:
                    6a:42:a8:13:dc:4f:81:6c:fc:23:3c:86:62:59:94:
                    72:70:40:fa:d3:c5:ea:c3:dc:64:de:bc:48:e6:7a:
                    98:36:7f:43:f7
                Exponent: 65537 (0x10001)
        X509v3 extensions:
            X509v3 Subject Key Identifier: 
                42:90:27:7A:B9:B3:8A:38:49:07:05:50:A6:BA:8C:B8:D5:6D:80:20
            X509v3 Authority Key Identifier: 
                keyid:00:82:A0:BE:DC:08:8F:D0:44:D1:FE:31:A0:27:2D:C0:06:C4:9D:6B

            X509v3 Basic Constraints: 
                CA:FALSE
            X509v3 Key Usage: 
                Digital Signature, Key Encipherment
            X509v3 Subject Alternative Name: 
                DNS:localhost, IP Address:127.0.0.1, IP Address:0:0:0:0:0:0:0:1
            Netscape Comment: 
                OpenSSL Generated Certificate
    Signature Algorithm: sha1WithRSAEncryption
         f7:24:b3:bb:a5:d1:d2:7a:6a:ad:2f:8d:73:8c:aa:0f:30:b0:
         dc:ae:ef:f0:cd:01:81:ff:c2:f4:77:7d:41:4c:02:7c:2f:0d:
         ae:2b:fc:06:1b:c9:9e:96:97:29:40:0f:7e:c0:3a:56:82:0b:
         90:b9:0a:0e:0b:7c:68:8e:4a:4e
-----BEGIN CERTIFICATE-----
MIICiDCCAjKgAwIBAgIBBTANBgkqhkiG9w0BAQUFADB1MQswCQYDVQQGEwJCRTER
MA8GA1UECAwIQnJ1c3NlbHMxETAPBgNVBAcMCEJydXNzZWxzMQswCQYDVQQKDAJD
QTEMMAoGA1UECwwDVlVCMQswCQYDVQQDDAJDQTEYMBYGCSqGSIb3DQEJARYJY2FA
dnViLmJlMB4XDTE3MDUxODEzMTM1MVoXDTIwMDIxMjEzMTM1MVowajELMAkGA1UE
BhMCQkUxETAPBgNVBAgMCEJydXNzZWxzMREwDwYDVQQHDAhCcnVzc2VsczEMMAoG
A1UECgwDVlVCMQ8wDQYDVQQDDAZHT09HTEUxFjAUBgoJkiaJk/IsZAQNDAZTb2NO
ZXQwXDANBgkqhkiG9w0BAQEFAANLADBIAkEA3XZ0QZA09FEfzawdAXC0S+LpxRHT
KSaO55w+uTVqQqgT3E+BbPwjPIZiWZRycED608Xqw9xk3rxI5nqYNn9D9wIDAQAB
o4G3MIG0MB0GA1UdDgQWBBRCkCd6ubOKOEkHBVCmuoy41W2AIDAfBgNVHSMEGDAW
gBQAgqC+3AiP0ETR/jGgJy3ABsSdazAJBgNVHRMEAjAAMAsGA1UdDwQEAwIFoDAs
BgNVHREEJTAjgglsb2NhbGhvc3SHBH8AAAGHEAAAAAAAAAAAAAAAAAAAAAEwLAYJ
YIZIAYb4QgENBB8WHU9wZW5TU0wgR2VuZXJhdGVkIENlcnRpZmljYXRlMA0GCSqG
SIb3DQEBBQUAA0EA9ySzu6XR0npqrS+Nc4yqDzCw3K7v8M0Bgf/C9Hd9QUwCfC8N
riv8BhvJnpaXKUAPfsA6VoILkLkKDgt8aI5KTg==
-----END CERTIFICATE-----
