Certificate:
    Data:
        Version: 3 (0x2)
        Serial Number: 6 (0x6)
    Signature Algorithm: sha1WithRSAEncryption
        Issuer: C=BE, ST=Brussels, L=Brussels, O=CA, OU=VUB, CN=CA/emailAddress=ca@vub.be
        Validity
            Not Before: May 18 13:14:05 2017 GMT
            Not After : Feb 12 13:14:05 2020 GMT
        Subject: C=BE, ST=Brussels, L=Brussels, O=VUB, CN=COLRUYT/domain=SuperMarket
        Subject Public Key Info:
            Public Key Algorithm: rsaEncryption
                Public-Key: (512 bit)
                Modulus:
                    00:bf:ee:8c:b6:d3:36:4c:89:ed:bf:ac:27:51:2b:
                    af:58:e2:bb:d2:d9:a1:16:15:f7:f0:31:26:17:51:
                    24:45:34:69:6b:c2:c3:34:b6:3e:d9:03:c5:75:cb:
                    aa:2e:99:b6:6f:5f:31:e6:fb:41:6c:fc:92:27:73:
                    5e:b3:ba:e9:6d
                Exponent: 65537 (0x10001)
        X509v3 extensions:
            X509v3 Subject Key Identifier: 
                9C:70:01:7E:6C:02:A9:C5:25:B1:74:3B:A6:0A:7C:B4:53:D1:65:48
            X509v3 Authority Key Identifier: 
                keyid:00:82:A0:BE:DC:08:8F:D0:44:D1:FE:31:A0:27:2D:C0:06:C4:9D:6B

            X509v3 Basic Constraints: 
                CA:FALSE
            X509v3 Key Usage: 
                Digital Signature, Key Encipherment
            X509v3 Subject Alternative Name: 
                DNS:localhost, IP Address:127.0.0.1, IP Address:0:0:0:0:0:0:0:1
            Netscape Comment: 
                OpenSSL Generated Certificate
    Signature Algorithm: sha1WithRSAEncryption
         30:8a:24:bb:90:42:db:3b:dc:72:5e:9b:05:86:8d:bd:d9:94:
         b1:4b:ea:48:7f:da:92:68:2c:3c:b5:09:33:58:2e:d0:5d:2e:
         09:b1:e9:1c:46:3a:f1:a7:ca:0b:bd:a8:54:7f:45:20:79:6b:
         a7:d3:bf:2c:b4:1f:a1:dc:92:fd
-----BEGIN CERTIFICATE-----
MIICjjCCAjigAwIBAgIBBjANBgkqhkiG9w0BAQUFADB1MQswCQYDVQQGEwJCRTER
MA8GA1UECAwIQnJ1c3NlbHMxETAPBgNVBAcMCEJydXNzZWxzMQswCQYDVQQKDAJD
QTEMMAoGA1UECwwDVlVCMQswCQYDVQQDDAJDQTEYMBYGCSqGSIb3DQEJARYJY2FA
dnViLmJlMB4XDTE3MDUxODEzMTQwNVoXDTIwMDIxMjEzMTQwNVowcDELMAkGA1UE
BhMCQkUxETAPBgNVBAgMCEJydXNzZWxzMREwDwYDVQQHDAhCcnVzc2VsczEMMAoG
A1UECgwDVlVCMRAwDgYDVQQDDAdDT0xSVVlUMRswGQYKCZImiZPyLGQEDQwLU3Vw
ZXJNYXJrZXQwXDANBgkqhkiG9w0BAQEFAANLADBIAkEAv+6MttM2TIntv6wnUSuv
WOK70tmhFhX38DEmF1EkRTRpa8LDNLY+2QPFdcuqLpm2b18x5vtBbPySJ3Nes7rp
bQIDAQABo4G3MIG0MB0GA1UdDgQWBBSccAF+bAKpxSWxdDumCny0U9FlSDAfBgNV
HSMEGDAWgBQAgqC+3AiP0ETR/jGgJy3ABsSdazAJBgNVHRMEAjAAMAsGA1UdDwQE
AwIFoDAsBgNVHREEJTAjgglsb2NhbGhvc3SHBH8AAAGHEAAAAAAAAAAAAAAAAAAA
AAEwLAYJYIZIAYb4QgENBB8WHU9wZW5TU0wgR2VuZXJhdGVkIENlcnRpZmljYXRl
MA0GCSqGSIb3DQEBBQUAA0EAMIoku5BC2zvccl6bBYaNvdmUsUvqSH/akmgsPLUJ
M1gu0F0uCbHpHEY68afKC72oVH9FIHlrp9O/LLQfodyS/Q==
-----END CERTIFICATE-----
