Certificate:
    Data:
        Version: 3 (0x2)
        Serial Number: 7 (0x7)
    Signature Algorithm: sha1WithRSAEncryption
        Issuer: C=BE, ST=Brussels, L=Brussels, O=CA, OU=VUB, CN=CA/emailAddress=ca@vub.be
        Validity
            Not Before: May 18 13:14:16 2017 GMT
            Not After : Feb 12 13:14:16 2020 GMT
        Subject: C=BE, ST=Brussels, L=Brussels, O=VUB, CN=DELHAIZE/domain=SuperMarket
        Subject Public Key Info:
            Public Key Algorithm: rsaEncryption
                Public-Key: (512 bit)
                Modulus:
                    00:ba:93:72:f5:4c:05:8e:8d:7c:a4:f2:fc:70:c3:
                    59:93:3f:26:56:01:ba:d1:66:aa:08:8c:fb:b2:a0:
                    50:2b:65:5c:1e:b9:7a:fe:d7:28:b6:55:67:3e:49:
                    2c:ff:30:50:33:be:69:71:5d:67:76:8d:cd:36:39:
                    b5:1a:95:cd:9f
                Exponent: 65537 (0x10001)
        X509v3 extensions:
            X509v3 Subject Key Identifier: 
                25:A0:47:C4:B6:9B:E3:D1:2C:12:16:8E:56:12:67:F3:3C:D8:11:F9
            X509v3 Authority Key Identifier: 
                keyid:00:82:A0:BE:DC:08:8F:D0:44:D1:FE:31:A0:27:2D:C0:06:C4:9D:6B

            X509v3 Basic Constraints: 
                CA:FALSE
            X509v3 Key Usage: 
                Digital Signature, Key Encipherment
            X509v3 Subject Alternative Name: 
                DNS:localhost, IP Address:127.0.0.1, IP Address:0:0:0:0:0:0:0:1
            Netscape Comment: 
                OpenSSL Generated Certificate
    Signature Algorithm: sha1WithRSAEncryption
         6a:9d:dc:78:ac:71:b3:1e:bd:14:f6:9e:fd:48:df:af:63:bd:
         b7:28:20:4e:63:ea:a3:cb:3e:f9:55:e9:31:77:4a:c5:3c:dc:
         43:0c:43:05:3e:1d:a9:ec:4e:5c:29:2a:7e:30:29:cf:ea:25:
         8a:03:27:83:10:19:43:73:3a:f3
-----BEGIN CERTIFICATE-----
MIICjzCCAjmgAwIBAgIBBzANBgkqhkiG9w0BAQUFADB1MQswCQYDVQQGEwJCRTER
MA8GA1UECAwIQnJ1c3NlbHMxETAPBgNVBAcMCEJydXNzZWxzMQswCQYDVQQKDAJD
QTEMMAoGA1UECwwDVlVCMQswCQYDVQQDDAJDQTEYMBYGCSqGSIb3DQEJARYJY2FA
dnViLmJlMB4XDTE3MDUxODEzMTQxNloXDTIwMDIxMjEzMTQxNlowcTELMAkGA1UE
BhMCQkUxETAPBgNVBAgMCEJydXNzZWxzMREwDwYDVQQHDAhCcnVzc2VsczEMMAoG
A1UECgwDVlVCMREwDwYDVQQDDAhERUxIQUlaRTEbMBkGCgmSJomT8ixkBA0MC1N1
cGVyTWFya2V0MFwwDQYJKoZIhvcNAQEBBQADSwAwSAJBALqTcvVMBY6NfKTy/HDD
WZM/JlYButFmqgiM+7KgUCtlXB65ev7XKLZVZz5JLP8wUDO+aXFdZ3aNzTY5tRqV
zZ8CAwEAAaOBtzCBtDAdBgNVHQ4EFgQUJaBHxLab49EsEhaOVhJn8zzYEfkwHwYD
VR0jBBgwFoAUAIKgvtwIj9BE0f4xoCctwAbEnWswCQYDVR0TBAIwADALBgNVHQ8E
BAMCBaAwLAYDVR0RBCUwI4IJbG9jYWxob3N0hwR/AAABhxAAAAAAAAAAAAAAAAAA
AAABMCwGCWCGSAGG+EIBDQQfFh1PcGVuU1NMIEdlbmVyYXRlZCBDZXJ0aWZpY2F0
ZTANBgkqhkiG9w0BAQUFAANBAGqd3HiscbMevRT2nv1I369jvbcoIE5j6qPLPvlV
6TF3SsU83EMMQwU+HansTlwpKn4wKc/qJYoDJ4MQGUNzOvM=
-----END CERTIFICATE-----
