Certificate:
    Data:
        Version: 3 (0x2)
        Serial Number: 9 (0x9)
    Signature Algorithm: sha1WithRSAEncryption
        Issuer: C=BE, ST=Brussels, L=Brussels, O=CA, OU=VUB, CN=CA/emailAddress=ca@vub.be
        Validity
            Not Before: May 18 13:14:41 2017 GMT
            Not After : Feb 12 13:14:41 2020 GMT
        Subject: C=BE, ST=Brussels, L=Brussels, O=VUB, CN=PLANCKENDAEL/domain=default
        Subject Public Key Info:
            Public Key Algorithm: rsaEncryption
                Public-Key: (512 bit)
                Modulus:
                    00:cc:22:50:eb:78:e5:dd:e9:e5:77:18:bf:42:ac:
                    3b:07:6f:7c:d4:5e:56:5e:f1:99:18:8d:6d:93:a5:
                    17:81:b9:fb:79:f6:30:74:75:9c:44:94:97:51:a8:
                    78:d4:0f:79:9b:89:bf:d4:36:cb:03:ce:73:80:89:
                    4d:ea:75:1a:7b
                Exponent: 65537 (0x10001)
        X509v3 extensions:
            X509v3 Subject Key Identifier: 
                90:3F:1B:46:B7:16:ED:5E:14:0D:39:31:FC:FF:6C:77:3C:8B:C8:B5
            X509v3 Authority Key Identifier: 
                keyid:00:82:A0:BE:DC:08:8F:D0:44:D1:FE:31:A0:27:2D:C0:06:C4:9D:6B

            X509v3 Basic Constraints: 
                CA:FALSE
            X509v3 Key Usage: 
                Digital Signature, Key Encipherment
            X509v3 Subject Alternative Name: 
                DNS:localhost, IP Address:127.0.0.1, IP Address:0:0:0:0:0:0:0:1
            Netscape Comment: 
                OpenSSL Generated Certificate
    Signature Algorithm: sha1WithRSAEncryption
         1c:34:74:84:59:32:2d:72:a0:4b:97:aa:00:ef:bc:6e:e1:be:
         d6:4f:92:27:51:65:a2:15:da:3e:3e:70:3a:6c:99:96:36:e6:
         ac:d8:11:d7:3e:bc:26:f1:2e:1c:51:58:3d:c8:b4:00:e6:d7:
         0d:26:99:cc:00:84:c4:cf:66:b4
-----BEGIN CERTIFICATE-----
MIICjzCCAjmgAwIBAgIBCTANBgkqhkiG9w0BAQUFADB1MQswCQYDVQQGEwJCRTER
MA8GA1UECAwIQnJ1c3NlbHMxETAPBgNVBAcMCEJydXNzZWxzMQswCQYDVQQKDAJD
QTEMMAoGA1UECwwDVlVCMQswCQYDVQQDDAJDQTEYMBYGCSqGSIb3DQEJARYJY2FA
dnViLmJlMB4XDTE3MDUxODEzMTQ0MVoXDTIwMDIxMjEzMTQ0MVowcTELMAkGA1UE
BhMCQkUxETAPBgNVBAgMCEJydXNzZWxzMREwDwYDVQQHDAhCcnVzc2VsczEMMAoG
A1UECgwDVlVCMRUwEwYDVQQDDAxQTEFOQ0tFTkRBRUwxFzAVBgoJkiaJk/IsZAQN
DAdkZWZhdWx0MFwwDQYJKoZIhvcNAQEBBQADSwAwSAJBAMwiUOt45d3p5XcYv0Ks
OwdvfNReVl7xmRiNbZOlF4G5+3n2MHR1nESUl1GoeNQPeZuJv9Q2ywPOc4CJTep1
GnsCAwEAAaOBtzCBtDAdBgNVHQ4EFgQUkD8bRrcW7V4UDTkx/P9sdzyLyLUwHwYD
VR0jBBgwFoAUAIKgvtwIj9BE0f4xoCctwAbEnWswCQYDVR0TBAIwADALBgNVHQ8E
BAMCBaAwLAYDVR0RBCUwI4IJbG9jYWxob3N0hwR/AAABhxAAAAAAAAAAAAAAAAAA
AAABMCwGCWCGSAGG+EIBDQQfFh1PcGVuU1NMIEdlbmVyYXRlZCBDZXJ0aWZpY2F0
ZTANBgkqhkiG9w0BAQUFAANBABw0dIRZMi1yoEuXqgDvvG7hvtZPkidRZaIV2j4+
cDpsmZY25qzYEdc+vCbxLhxRWD3ItADm1w0mmcwAhMTPZrQ=
-----END CERTIFICATE-----
