Certificate:
    Data:
        Version: 3 (0x2)
        Serial Number: 10 (0xa)
    Signature Algorithm: sha1WithRSAEncryption
        Issuer: C=BE, ST=Brussels, L=Brussels, O=CA, OU=VUB, CN=CA/emailAddress=ca@vub.be
        Validity
            Not Before: May 18 13:14:51 2017 GMT
            Not After : Feb 12 13:14:51 2020 GMT
        Subject: C=BE, ST=Brussels, L=Brussels, O=VUB, CN=COMMON/domain=common
        Subject Public Key Info:
            Public Key Algorithm: rsaEncryption
                Public-Key: (512 bit)
                Modulus:
                    00:c3:11:2d:bc:a4:2c:1e:29:36:cd:dd:dc:e6:9d:
                    69:ca:14:e0:d1:df:8f:dd:34:77:f9:72:ae:f1:c9:
                    f2:f4:ef:d4:b6:e4:f0:74:ff:88:e7:97:af:13:4e:
                    d5:56:82:c4:14:d8:bc:94:1e:2c:ef:9a:87:6a:64:
                    36:1f:e4:86:5d
                Exponent: 65537 (0x10001)
        X509v3 extensions:
            X509v3 Subject Key Identifier: 
                7E:14:B5:6E:26:3A:D7:B7:A1:28:23:E6:9A:E9:61:A3:FD:49:13:F0
            X509v3 Authority Key Identifier: 
                keyid:00:82:A0:BE:DC:08:8F:D0:44:D1:FE:31:A0:27:2D:C0:06:C4:9D:6B

            X509v3 Basic Constraints: 
                CA:FALSE
            X509v3 Key Usage: 
                Digital Signature, Key Encipherment
            X509v3 Subject Alternative Name: 
                DNS:localhost, IP Address:127.0.0.1, IP Address:0:0:0:0:0:0:0:1
            Netscape Comment: 
                OpenSSL Generated Certificate
    Signature Algorithm: sha1WithRSAEncryption
         a2:8d:3f:7b:00:4d:69:45:3b:6e:05:f6:75:d6:d4:7b:c9:32:
         50:2b:9f:62:1f:b0:4c:ac:32:29:10:d3:ec:66:69:e1:54:76:
         48:94:55:9d:ac:bc:3b:ce:38:b0:13:9c:f1:c5:83:d2:2a:f2:
         45:74:1a:a8:54:ef:39:d2:26:e1
-----BEGIN CERTIFICATE-----
MIICiDCCAjKgAwIBAgIBCjANBgkqhkiG9w0BAQUFADB1MQswCQYDVQQGEwJCRTER
MA8GA1UECAwIQnJ1c3NlbHMxETAPBgNVBAcMCEJydXNzZWxzMQswCQYDVQQKDAJD
QTEMMAoGA1UECwwDVlVCMQswCQYDVQQDDAJDQTEYMBYGCSqGSIb3DQEJARYJY2FA
dnViLmJlMB4XDTE3MDUxODEzMTQ1MVoXDTIwMDIxMjEzMTQ1MVowajELMAkGA1UE
BhMCQkUxETAPBgNVBAgMCEJydXNzZWxzMREwDwYDVQQHDAhCcnVzc2VsczEMMAoG
A1UECgwDVlVCMQ8wDQYDVQQDDAZDT01NT04xFjAUBgoJkiaJk/IsZAQNDAZjb21t
b24wXDANBgkqhkiG9w0BAQEFAANLADBIAkEAwxEtvKQsHik2zd3c5p1pyhTg0d+P
3TR3+XKu8cny9O/UtuTwdP+I55evE07VVoLEFNi8lB4s75qHamQ2H+SGXQIDAQAB
o4G3MIG0MB0GA1UdDgQWBBR+FLVuJjrXt6EoI+aa6WGj/UkT8DAfBgNVHSMEGDAW
gBQAgqC+3AiP0ETR/jGgJy3ABsSdazAJBgNVHRMEAjAAMAsGA1UdDwQEAwIFoDAs
BgNVHREEJTAjgglsb2NhbGhvc3SHBH8AAAGHEAAAAAAAAAAAAAAAAAAAAAEwLAYJ
YIZIAYb4QgENBB8WHU9wZW5TU0wgR2VuZXJhdGVkIENlcnRpZmljYXRlMA0GCSqG
SIb3DQEBBQUAA0EAoo0/ewBNaUU7bgX2ddbUe8kyUCufYh+wTKwyKRDT7GZp4VR2
SJRVnay8O844sBOc8cWD0iryRXQaqFTvOdIm4Q==
-----END CERTIFICATE-----
