Certificate:
    Data:
        Version: 3 (0x2)
        Serial Number: 19 (0x13)
    Signature Algorithm: sha256WithRSAEncryption
        Issuer: C=BE, ST=Brussels, L=Brussels, O=CA, OU=VUB, CN=CA/emailAddress=ca@vub.be
        Validity
            Not Before: May 17 06:25:50 2017 GMT
            Not After : Feb 11 06:25:50 2020 GMT
        Subject: C=BE, ST=Brussels, L=Brussels, O=VUB, CN=PLANCKENDAEL/domain=default
        Subject Public Key Info:
            Public Key Algorithm: rsaEncryption
                Public-Key: (512 bit)
                Modulus:
                    00:b2:a5:7f:09:7f:57:81:e5:d3:9d:fd:dc:ff:04:
                    12:73:b6:8e:37:f8:1c:3b:5a:46:0d:83:5a:6c:0a:
                    18:08:ad:33:1b:ec:aa:69:d7:94:79:a9:6e:76:f6:
                    34:73:86:ff:1e:cb:4f:7c:a8:66:8c:c2:84:63:1e:
                    f9:5a:3f:29:5b
                Exponent: 65537 (0x10001)
        X509v3 extensions:
            X509v3 Subject Key Identifier: 
                17:AD:52:58:0B:32:57:96:C6:B6:BB:9E:BA:8D:24:74:1F:01:51:92
            X509v3 Authority Key Identifier: 
                keyid:35:24:5A:6A:25:49:52:7B:9D:F5:4A:C1:28:8D:39:C7:7B:00:40:50

            X509v3 Basic Constraints: 
                CA:FALSE
            X509v3 Key Usage: 
                Digital Signature, Key Encipherment
            X509v3 Subject Alternative Name: 
                DNS:localhost, IP Address:127.0.0.1, IP Address:0:0:0:0:0:0:0:1
            Netscape Comment: 
                OpenSSL Generated Certificate
    Signature Algorithm: sha256WithRSAEncryption
         87:6a:37:a7:bc:47:52:be:2e:9c:e5:5c:9f:9c:5b:4f:95:d2:
         d2:0f:cd:18:c6:0b:cf:d8:8c:08:93:b3:51:72:10:ae:bd:ba:
         e0:4b:65:cd:d1:25:61:1d:55:9c:2b:2a:15:ad:82:53:ef:aa:
         db:46:b0:61:c4:8c:90:24:e9:4b
-----BEGIN CERTIFICATE-----
MIICjzCCAjmgAwIBAgIBEzANBgkqhkiG9w0BAQsFADB1MQswCQYDVQQGEwJCRTER
MA8GA1UECAwIQnJ1c3NlbHMxETAPBgNVBAcMCEJydXNzZWxzMQswCQYDVQQKDAJD
QTEMMAoGA1UECwwDVlVCMQswCQYDVQQDDAJDQTEYMBYGCSqGSIb3DQEJARYJY2FA
dnViLmJlMB4XDTE3MDUxNzA2MjU1MFoXDTIwMDIxMTA2MjU1MFowcTELMAkGA1UE
BhMCQkUxETAPBgNVBAgMCEJydXNzZWxzMREwDwYDVQQHDAhCcnVzc2VsczEMMAoG
A1UECgwDVlVCMRUwEwYDVQQDDAxQTEFOQ0tFTkRBRUwxFzAVBgoJkiaJk/IsZAQN
DAdkZWZhdWx0MFwwDQYJKoZIhvcNAQEBBQADSwAwSAJBALKlfwl/V4Hl05393P8E
EnO2jjf4HDtaRg2DWmwKGAitMxvsqmnXlHmpbnb2NHOG/x7LT3yoZozChGMe+Vo/
KVsCAwEAAaOBtzCBtDAdBgNVHQ4EFgQUF61SWAsyV5bGtrueuo0kdB8BUZIwHwYD
VR0jBBgwFoAUNSRaaiVJUnud9UrBKI05x3sAQFAwCQYDVR0TBAIwADALBgNVHQ8E
BAMCBaAwLAYDVR0RBCUwI4IJbG9jYWxob3N0hwR/AAABhxAAAAAAAAAAAAAAAAAA
AAABMCwGCWCGSAGG+EIBDQQfFh1PcGVuU1NMIEdlbmVyYXRlZCBDZXJ0aWZpY2F0
ZTANBgkqhkiG9w0BAQsFAANBAIdqN6e8R1K+LpzlXJ+cW0+V0tIPzRjGC8/YjAiT
s1FyEK69uuBLZc3RJWEdVZwrKhWtglPvqttGsGHEjJAk6Us=
-----END CERTIFICATE-----
