Certificate:
    Data:
        Version: 3 (0x2)
        Serial Number: 11 (0xb)
    Signature Algorithm: sha1WithRSAEncryption
        Issuer: C=BE, ST=Brussels, L=Brussels, O=CA, OU=VUB, CN=CA/emailAddress=ca@vub.be
        Validity
            Not Before: May 30 09:06:47 2017 GMT
            Not After : Feb 24 09:06:47 2020 GMT
        Subject: C=BE, ST=Brussels, L=Brussels, O=VUB, CN=COM/domain=com
        Subject Public Key Info:
            Public Key Algorithm: rsaEncryption
                Public-Key: (512 bit)
                Modulus:
                    00:b1:cd:54:62:29:46:05:13:7e:6c:30:79:47:fd:
                    e6:87:0a:b7:9b:18:b9:44:c3:9d:48:31:73:68:11:
                    e8:26:c9:99:0a:7f:19:0a:c1:f4:4b:ad:46:83:dc:
                    f6:fd:98:a9:e2:11:fa:62:0e:e7:71:1b:9d:b6:17:
                    78:66:4e:d5:d3
                Exponent: 65537 (0x10001)
        X509v3 extensions:
            X509v3 Subject Key Identifier: 
                75:AF:0D:7E:55:1A:4F:BE:EA:2A:20:E0:58:4D:0A:FA:C4:F3:88:35
            X509v3 Authority Key Identifier: 
                keyid:00:82:A0:BE:DC:08:8F:D0:44:D1:FE:31:A0:27:2D:C0:06:C4:9D:6B

            X509v3 Basic Constraints: 
                CA:FALSE
            X509v3 Key Usage: 
                Digital Signature, Key Encipherment
            X509v3 Subject Alternative Name: 
                DNS:localhost, IP Address:127.0.0.1, IP Address:0:0:0:0:0:0:0:1
            Netscape Comment: 
                OpenSSL Generated Certificate
    Signature Algorithm: sha1WithRSAEncryption
         c5:54:94:5c:a9:40:06:31:94:0b:33:9b:da:c5:55:b0:16:8b:
         fc:d3:eb:3e:aa:c9:d1:1d:93:1f:1f:e0:86:32:52:c2:c7:ab:
         06:8a:2d:21:d6:a0:26:5e:49:50:76:3c:27:51:d2:8e:66:ef:
         f4:de:62:c4:63:35:72:5f:09:53
-----BEGIN CERTIFICATE-----
MIICgjCCAiygAwIBAgIBCzANBgkqhkiG9w0BAQUFADB1MQswCQYDVQQGEwJCRTER
MA8GA1UECAwIQnJ1c3NlbHMxETAPBgNVBAcMCEJydXNzZWxzMQswCQYDVQQKDAJD
QTEMMAoGA1UECwwDVlVCMQswCQYDVQQDDAJDQTEYMBYGCSqGSIb3DQEJARYJY2FA
dnViLmJlMB4XDTE3MDUzMDA5MDY0N1oXDTIwMDIyNDA5MDY0N1owZDELMAkGA1UE
BhMCQkUxETAPBgNVBAgMCEJydXNzZWxzMREwDwYDVQQHDAhCcnVzc2VsczEMMAoG
A1UECgwDVlVCMQwwCgYDVQQDDANDT00xEzARBgoJkiaJk/IsZAQNDANjb20wXDAN
BgkqhkiG9w0BAQEFAANLADBIAkEAsc1UYilGBRN+bDB5R/3mhwq3mxi5RMOdSDFz
aBHoJsmZCn8ZCsH0S61Gg9z2/Zip4hH6Yg7ncRudthd4Zk7V0wIDAQABo4G3MIG0
MB0GA1UdDgQWBBR1rw1+VRpPvuoqIOBYTQr6xPOINTAfBgNVHSMEGDAWgBQAgqC+
3AiP0ETR/jGgJy3ABsSdazAJBgNVHRMEAjAAMAsGA1UdDwQEAwIFoDAsBgNVHREE
JTAjgglsb2NhbGhvc3SHBH8AAAGHEAAAAAAAAAAAAAAAAAAAAAEwLAYJYIZIAYb4
QgENBB8WHU9wZW5TU0wgR2VuZXJhdGVkIENlcnRpZmljYXRlMA0GCSqGSIb3DQEB
BQUAA0EAxVSUXKlABjGUCzOb2sVVsBaL/NPrPqrJ0R2THx/ghjJSwserBootIdag
Jl5JUHY8J1HSjmbv9N5ixGM1cl8JUw==
-----END CERTIFICATE-----
