Certificate:
    Data:
        Version: 3 (0x2)
        Serial Number: 15 (0xf)
    Signature Algorithm: sha256WithRSAEncryption
        Issuer: C=BE, ST=Brussels, L=Brussels, O=CA, OU=VUB, CN=CA/emailAddress=ca@vub.be
        Validity
            Not Before: May 17 06:24:56 2017 GMT
            Not After : Feb 11 06:24:56 2020 GMT
        Subject: C=BE, ST=Brussels, L=Brussels, O=VUB, CN=GOOGLE/domain=SocNet
        Subject Public Key Info:
            Public Key Algorithm: rsaEncryption
                Public-Key: (512 bit)
                Modulus:
                    00:e6:24:00:fa:e6:61:1a:3a:95:77:3a:08:2e:e7:
                    71:09:7e:54:89:34:f5:71:c4:6f:6c:78:e0:ee:c2:
                    8b:ff:36:6f:7b:17:99:23:9a:cf:4a:33:c4:80:31:
                    9f:30:a5:37:d3:d5:15:9a:a3:eb:08:65:4f:d1:a4:
                    31:66:f8:c0:3f
                Exponent: 65537 (0x10001)
        X509v3 extensions:
            X509v3 Subject Key Identifier: 
                6F:B0:B9:D6:A4:B7:5D:40:F2:05:09:A5:E5:E5:63:99:1F:46:28:1A
            X509v3 Authority Key Identifier: 
                keyid:35:24:5A:6A:25:49:52:7B:9D:F5:4A:C1:28:8D:39:C7:7B:00:40:50

            X509v3 Basic Constraints: 
                CA:FALSE
            X509v3 Key Usage: 
                Digital Signature, Key Encipherment
            X509v3 Subject Alternative Name: 
                DNS:localhost, IP Address:127.0.0.1, IP Address:0:0:0:0:0:0:0:1
            Netscape Comment: 
                OpenSSL Generated Certificate
    Signature Algorithm: sha256WithRSAEncryption
         79:17:1a:a3:a0:fc:2e:2f:cf:42:84:27:db:ee:0a:3a:ed:4d:
         d0:b4:33:57:76:3d:5f:4a:7c:d3:5f:90:b9:8b:fb:f0:2e:ab:
         54:6f:69:d2:8c:bf:fa:d3:73:16:eb:ba:39:f8:dd:e5:51:85:
         2d:f1:c7:e7:8f:ca:97:65:54:07
-----BEGIN CERTIFICATE-----
MIICiDCCAjKgAwIBAgIBDzANBgkqhkiG9w0BAQsFADB1MQswCQYDVQQGEwJCRTER
MA8GA1UECAwIQnJ1c3NlbHMxETAPBgNVBAcMCEJydXNzZWxzMQswCQYDVQQKDAJD
QTEMMAoGA1UECwwDVlVCMQswCQYDVQQDDAJDQTEYMBYGCSqGSIb3DQEJARYJY2FA
dnViLmJlMB4XDTE3MDUxNzA2MjQ1NloXDTIwMDIxMTA2MjQ1NlowajELMAkGA1UE
BhMCQkUxETAPBgNVBAgMCEJydXNzZWxzMREwDwYDVQQHDAhCcnVzc2VsczEMMAoG
A1UECgwDVlVCMQ8wDQYDVQQDDAZHT09HTEUxFjAUBgoJkiaJk/IsZAQNDAZTb2NO
ZXQwXDANBgkqhkiG9w0BAQEFAANLADBIAkEA5iQA+uZhGjqVdzoILudxCX5UiTT1
ccRvbHjg7sKL/zZvexeZI5rPSjPEgDGfMKU309UVmqPrCGVP0aQxZvjAPwIDAQAB
o4G3MIG0MB0GA1UdDgQWBBRvsLnWpLddQPIFCaXl5WOZH0YoGjAfBgNVHSMEGDAW
gBQ1JFpqJUlSe531SsEojTnHewBAUDAJBgNVHRMEAjAAMAsGA1UdDwQEAwIFoDAs
BgNVHREEJTAjgglsb2NhbGhvc3SHBH8AAAGHEAAAAAAAAAAAAAAAAAAAAAEwLAYJ
YIZIAYb4QgENBB8WHU9wZW5TU0wgR2VuZXJhdGVkIENlcnRpZmljYXRlMA0GCSqG
SIb3DQEBCwUAA0EAeRcao6D8Li/PQoQn2+4KOu1N0LQzV3Y9X0p801+QuYv78C6r
VG9p0oy/+tNzFuu6Ofjd5VGFLfHH54/Kl2VUBw==
-----END CERTIFICATE-----
