Certificate:
    Data:
        Version: 3 (0x2)
        Serial Number: 1 (0x1)
    Signature Algorithm: sha1WithRSAEncryption
        Issuer: C=BE, ST=Brussels, L=Brussels, O=CA, OU=VUB, CN=CA/emailAddress=ca@vub.be
        Validity
            Not Before: May 18 13:00:04 2017 GMT
            Not After : Feb 12 13:00:04 2020 GMT
        Subject: C=BE, ST=Brussels, L=Brussels, O=VUB, CN=GOV
        Subject Public Key Info:
            Public Key Algorithm: rsaEncryption
                Public-Key: (512 bit)
                Modulus:
                    00:d6:86:99:65:7b:f8:ee:12:39:9d:3a:24:a4:77:
                    cd:09:4a:27:dd:d5:1b:8c:99:ce:fd:15:c1:7d:2f:
                    be:42:67:6c:95:ff:d6:bf:94:02:e3:e0:6c:55:db:
                    b5:0b:35:04:cb:e2:6d:6a:c9:d7:e9:ae:a5:7d:20:
                    66:73:ef:e9:47
                Exponent: 65537 (0x10001)
        X509v3 extensions:
            X509v3 Subject Key Identifier: 
                2A:8D:EF:92:A8:04:64:78:34:37:CD:2F:A6:AB:25:63:93:61:34:59
            X509v3 Authority Key Identifier: 
                keyid:00:82:A0:BE:DC:08:8F:D0:44:D1:FE:31:A0:27:2D:C0:06:C4:9D:6B

            X509v3 Basic Constraints: 
                CA:FALSE
            X509v3 Key Usage: 
                Digital Signature, Key Encipherment
            X509v3 Subject Alternative Name: 
                DNS:localhost, IP Address:127.0.0.1, IP Address:0:0:0:0:0:0:0:1
            Netscape Comment: 
                OpenSSL Generated Certificate
    Signature Algorithm: sha1WithRSAEncryption
         5c:61:64:4a:6f:eb:cc:c3:ab:52:60:fa:21:3d:b4:3f:8e:d8:
         a5:17:37:5e:bb:f1:77:b6:dc:99:57:21:3f:87:df:3f:b3:83:
         12:11:e7:7b:fc:23:55:c2:dc:c3:35:8b:9d:32:6d:42:6e:b5:
         97:db:22:b5:7a:45:55:fa:f2:c1
-----BEGIN CERTIFICATE-----
MIICbTCCAhegAwIBAgIBATANBgkqhkiG9w0BAQUFADB1MQswCQYDVQQGEwJCRTER
MA8GA1UECAwIQnJ1c3NlbHMxETAPBgNVBAcMCEJydXNzZWxzMQswCQYDVQQKDAJD
QTEMMAoGA1UECwwDVlVCMQswCQYDVQQDDAJDQTEYMBYGCSqGSIb3DQEJARYJY2FA
dnViLmJlMB4XDTE3MDUxODEzMDAwNFoXDTIwMDIxMjEzMDAwNFowTzELMAkGA1UE
BhMCQkUxETAPBgNVBAgMCEJydXNzZWxzMREwDwYDVQQHDAhCcnVzc2VsczEMMAoG
A1UECgwDVlVCMQwwCgYDVQQDDANHT1YwXDANBgkqhkiG9w0BAQEFAANLADBIAkEA
1oaZZXv47hI5nTokpHfNCUon3dUbjJnO/RXBfS++Qmdslf/Wv5QC4+BsVdu1CzUE
y+JtasnX6a6lfSBmc+/pRwIDAQABo4G3MIG0MB0GA1UdDgQWBBQqje+SqARkeDQ3
zS+mqyVjk2E0WTAfBgNVHSMEGDAWgBQAgqC+3AiP0ETR/jGgJy3ABsSdazAJBgNV
HRMEAjAAMAsGA1UdDwQEAwIFoDAsBgNVHREEJTAjgglsb2NhbGhvc3SHBH8AAAGH
EAAAAAAAAAAAAAAAAAAAAAEwLAYJYIZIAYb4QgENBB8WHU9wZW5TU0wgR2VuZXJh
dGVkIENlcnRpZmljYXRlMA0GCSqGSIb3DQEBBQUAA0EAXGFkSm/rzMOrUmD6IT20
P47YpRc3Xrvxd7bcmVchP4ffP7ODEhHne/wjVcLcwzWLnTJtQm61l9sitXpFVfry
wQ==
-----END CERTIFICATE-----
