Certificate:
    Data:
        Version: 3 (0x2)
        Serial Number: 18 (0x12)
    Signature Algorithm: sha256WithRSAEncryption
        Issuer: C=BE, ST=Brussels, L=Brussels, O=CA, OU=VUB, CN=CA/emailAddress=ca@vub.be
        Validity
            Not Before: May 17 06:25:31 2017 GMT
            Not After : Feb 11 06:25:31 2020 GMT
        Subject: C=BE, ST=Brussels, L=Brussels, O=VUB, CN=KINEPOLIS/domain=default
        Subject Public Key Info:
            Public Key Algorithm: rsaEncryption
                Public-Key: (512 bit)
                Modulus:
                    00:e2:ed:54:c8:cb:32:d6:ce:84:0d:8c:b2:d9:7f:
                    b3:49:c5:85:ff:79:36:54:1b:4a:9a:e9:c6:27:0d:
                    d1:ef:19:f2:ec:42:f3:35:ae:3b:23:3a:f0:49:0a:
                    48:f0:f8:39:08:ec:27:2c:89:ef:68:59:e2:56:a8:
                    0d:85:e6:bc:d3
                Exponent: 65537 (0x10001)
        X509v3 extensions:
            X509v3 Subject Key Identifier: 
                2D:90:E4:1D:99:FA:3D:EF:6A:46:AA:59:14:FF:27:0B:69:59:46:F0
            X509v3 Authority Key Identifier: 
                keyid:35:24:5A:6A:25:49:52:7B:9D:F5:4A:C1:28:8D:39:C7:7B:00:40:50

            X509v3 Basic Constraints: 
                CA:FALSE
            X509v3 Key Usage: 
                Digital Signature, Key Encipherment
            X509v3 Subject Alternative Name: 
                DNS:localhost, IP Address:127.0.0.1, IP Address:0:0:0:0:0:0:0:1
            Netscape Comment: 
                OpenSSL Generated Certificate
    Signature Algorithm: sha256WithRSAEncryption
         10:dd:cb:7f:45:a4:fd:c8:f8:8f:7f:50:f3:23:94:4f:f9:1d:
         87:e8:57:fe:69:62:e6:b3:03:18:bb:f8:ec:05:ef:f4:7c:5d:
         19:9a:f5:39:5b:d1:8e:48:76:e3:86:e7:28:a0:31:a2:3a:29:
         06:3a:0c:7b:1c:34:1a:f9:f8:0d
-----BEGIN CERTIFICATE-----
MIICjDCCAjagAwIBAgIBEjANBgkqhkiG9w0BAQsFADB1MQswCQYDVQQGEwJCRTER
MA8GA1UECAwIQnJ1c3NlbHMxETAPBgNVBAcMCEJydXNzZWxzMQswCQYDVQQKDAJD
QTEMMAoGA1UECwwDVlVCMQswCQYDVQQDDAJDQTEYMBYGCSqGSIb3DQEJARYJY2FA
dnViLmJlMB4XDTE3MDUxNzA2MjUzMVoXDTIwMDIxMTA2MjUzMVowbjELMAkGA1UE
BhMCQkUxETAPBgNVBAgMCEJydXNzZWxzMREwDwYDVQQHDAhCcnVzc2VsczEMMAoG
A1UECgwDVlVCMRIwEAYDVQQDDAlLSU5FUE9MSVMxFzAVBgoJkiaJk/IsZAQNDAdk
ZWZhdWx0MFwwDQYJKoZIhvcNAQEBBQADSwAwSAJBAOLtVMjLMtbOhA2Mstl/s0nF
hf95NlQbSprpxicN0e8Z8uxC8zWuOyM68EkKSPD4OQjsJyyJ72hZ4laoDYXmvNMC
AwEAAaOBtzCBtDAdBgNVHQ4EFgQULZDkHZn6Pe9qRqpZFP8nC2lZRvAwHwYDVR0j
BBgwFoAUNSRaaiVJUnud9UrBKI05x3sAQFAwCQYDVR0TBAIwADALBgNVHQ8EBAMC
BaAwLAYDVR0RBCUwI4IJbG9jYWxob3N0hwR/AAABhxAAAAAAAAAAAAAAAAAAAAAB
MCwGCWCGSAGG+EIBDQQfFh1PcGVuU1NMIEdlbmVyYXRlZCBDZXJ0aWZpY2F0ZTAN
BgkqhkiG9w0BAQsFAANBABDdy39FpP3I+I9/UPMjlE/5HYfoV/5pYuazAxi7+OwF
7/R8XRma9Tlb0Y5IduOG5yigMaI6KQY6DHscNBr5+A0=
-----END CERTIFICATE-----
