Certificate:
    Data:
        Version: 3 (0x2)
        Serial Number: 8 (0x8)
    Signature Algorithm: sha1WithRSAEncryption
        Issuer: C=BE, ST=Brussels, L=Brussels, O=CA, OU=VUB, CN=CA/emailAddress=ca@vub.be
        Validity
            Not Before: May 18 13:14:29 2017 GMT
            Not After : Feb 12 13:14:29 2020 GMT
        Subject: C=BE, ST=Brussels, L=Brussels, O=VUB, CN=KINEPOLIS/domain=default
        Subject Public Key Info:
            Public Key Algorithm: rsaEncryption
                Public-Key: (512 bit)
                Modulus:
                    00:e3:3a:4a:83:c9:4e:74:fd:30:9e:01:fe:7c:e9:
                    f5:00:d3:33:b0:4f:77:1c:53:10:2c:62:30:96:01:
                    c3:79:1e:36:23:3f:70:5c:fc:c1:cb:87:a8:5e:a8:
                    3b:f4:00:f0:4d:b6:0f:8b:ea:b9:b8:98:e8:06:4a:
                    ae:69:c5:c5:4d
                Exponent: 65537 (0x10001)
        X509v3 extensions:
            X509v3 Subject Key Identifier: 
                6A:8D:82:79:B9:8D:52:63:3F:00:40:57:E1:9D:5A:5C:17:EE:05:3A
            X509v3 Authority Key Identifier: 
                keyid:00:82:A0:BE:DC:08:8F:D0:44:D1:FE:31:A0:27:2D:C0:06:C4:9D:6B

            X509v3 Basic Constraints: 
                CA:FALSE
            X509v3 Key Usage: 
                Digital Signature, Key Encipherment
            X509v3 Subject Alternative Name: 
                DNS:localhost, IP Address:127.0.0.1, IP Address:0:0:0:0:0:0:0:1
            Netscape Comment: 
                OpenSSL Generated Certificate
    Signature Algorithm: sha1WithRSAEncryption
         4f:cd:97:1a:f7:08:df:0a:73:53:9f:7c:8e:87:6a:60:a5:a8:
         86:6d:d9:17:d2:9c:03:f9:b4:eb:51:2d:5c:1d:81:49:ec:a8:
         25:83:ba:ee:ef:21:77:61:a9:38:12:07:15:d9:fb:63:73:22:
         4f:0c:ca:05:e7:5f:01:06:68:17
-----BEGIN CERTIFICATE-----
MIICjDCCAjagAwIBAgIBCDANBgkqhkiG9w0BAQUFADB1MQswCQYDVQQGEwJCRTER
MA8GA1UECAwIQnJ1c3NlbHMxETAPBgNVBAcMCEJydXNzZWxzMQswCQYDVQQKDAJD
QTEMMAoGA1UECwwDVlVCMQswCQYDVQQDDAJDQTEYMBYGCSqGSIb3DQEJARYJY2FA
dnViLmJlMB4XDTE3MDUxODEzMTQyOVoXDTIwMDIxMjEzMTQyOVowbjELMAkGA1UE
BhMCQkUxETAPBgNVBAgMCEJydXNzZWxzMREwDwYDVQQHDAhCcnVzc2VsczEMMAoG
A1UECgwDVlVCMRIwEAYDVQQDDAlLSU5FUE9MSVMxFzAVBgoJkiaJk/IsZAQNDAdk
ZWZhdWx0MFwwDQYJKoZIhvcNAQEBBQADSwAwSAJBAOM6SoPJTnT9MJ4B/nzp9QDT
M7BPdxxTECxiMJYBw3keNiM/cFz8wcuHqF6oO/QA8E22D4vqubiY6AZKrmnFxU0C
AwEAAaOBtzCBtDAdBgNVHQ4EFgQUao2CebmNUmM/AEBX4Z1aXBfuBTowHwYDVR0j
BBgwFoAUAIKgvtwIj9BE0f4xoCctwAbEnWswCQYDVR0TBAIwADALBgNVHQ8EBAMC
BaAwLAYDVR0RBCUwI4IJbG9jYWxob3N0hwR/AAABhxAAAAAAAAAAAAAAAAAAAAAB
MCwGCWCGSAGG+EIBDQQfFh1PcGVuU1NMIEdlbmVyYXRlZCBDZXJ0aWZpY2F0ZTAN
BgkqhkiG9w0BAQUFAANBAE/Nlxr3CN8Kc1OffI6HamClqIZt2RfSnAP5tOtRLVwd
gUnsqCWDuu7vIXdhqTgSBxXZ+2NzIk8MygXnXwEGaBc=
-----END CERTIFICATE-----
