Certificate:
    Data:
        Version: 3 (0x2)
        Serial Number: 2 (0x2)
    Signature Algorithm: sha1WithRSAEncryption
        Issuer: C=BE, ST=Brussels, L=Brussels, O=CA, OU=VUB, CN=CA/emailAddress=ca@vub.be
        Validity
            Not Before: May 18 13:13:14 2017 GMT
            Not After : Feb 12 13:13:14 2020 GMT
        Subject: C=BE, ST=Brussels, L=Brussels, O=VUB, CN=TAXONWEB/domain=eGov
        Subject Public Key Info:
            Public Key Algorithm: rsaEncryption
                Public-Key: (512 bit)
                Modulus:
                    00:b0:6f:f5:da:26:40:e8:db:3a:6a:4c:3a:f7:c5:
                    33:19:66:1e:4a:85:ee:9b:a6:7d:ea:82:ca:1c:ae:
                    d4:a4:83:e2:1c:ce:28:84:48:79:07:0b:2e:a2:e2:
                    75:ef:81:22:84:c7:e3:10:49:6a:75:a3:84:73:be:
                    1f:aa:2a:d5:47
                Exponent: 65537 (0x10001)
        X509v3 extensions:
            X509v3 Subject Key Identifier: 
                02:A6:69:A6:90:28:29:B5:F8:C8:27:48:AC:90:DC:32:76:32:7C:FA
            X509v3 Authority Key Identifier: 
                keyid:00:82:A0:BE:DC:08:8F:D0:44:D1:FE:31:A0:27:2D:C0:06:C4:9D:6B

            X509v3 Basic Constraints: 
                CA:FALSE
            X509v3 Key Usage: 
                Digital Signature, Key Encipherment
            X509v3 Subject Alternative Name: 
                DNS:localhost, IP Address:127.0.0.1, IP Address:0:0:0:0:0:0:0:1
            Netscape Comment: 
                OpenSSL Generated Certificate
    Signature Algorithm: sha1WithRSAEncryption
         d1:4c:78:ad:af:be:01:61:5c:59:9e:78:70:8c:c5:00:5c:56:
         bb:02:1a:46:5e:49:49:35:03:3b:be:ce:cc:f1:8c:bf:72:fb:
         7d:38:8d:06:ca:61:a2:6e:64:f1:eb:a0:44:a9:e8:0c:18:bc:
         9e:6a:c8:e2:8e:be:3f:16:ec:89
-----BEGIN CERTIFICATE-----
MIICiDCCAjKgAwIBAgIBAjANBgkqhkiG9w0BAQUFADB1MQswCQYDVQQGEwJCRTER
MA8GA1UECAwIQnJ1c3NlbHMxETAPBgNVBAcMCEJydXNzZWxzMQswCQYDVQQKDAJD
QTEMMAoGA1UECwwDVlVCMQswCQYDVQQDDAJDQTEYMBYGCSqGSIb3DQEJARYJY2FA
dnViLmJlMB4XDTE3MDUxODEzMTMxNFoXDTIwMDIxMjEzMTMxNFowajELMAkGA1UE
BhMCQkUxETAPBgNVBAgMCEJydXNzZWxzMREwDwYDVQQHDAhCcnVzc2VsczEMMAoG
A1UECgwDVlVCMREwDwYDVQQDDAhUQVhPTldFQjEUMBIGCgmSJomT8ixkBA0MBGVH
b3YwXDANBgkqhkiG9w0BAQEFAANLADBIAkEAsG/12iZA6Ns6akw698UzGWYeSoXu
m6Z96oLKHK7UpIPiHM4ohEh5BwsuouJ174EihMfjEElqdaOEc74fqirVRwIDAQAB
o4G3MIG0MB0GA1UdDgQWBBQCpmmmkCgptfjIJ0iskNwydjJ8+jAfBgNVHSMEGDAW
gBQAgqC+3AiP0ETR/jGgJy3ABsSdazAJBgNVHRMEAjAAMAsGA1UdDwQEAwIFoDAs
BgNVHREEJTAjgglsb2NhbGhvc3SHBH8AAAGHEAAAAAAAAAAAAAAAAAAAAAEwLAYJ
YIZIAYb4QgENBB8WHU9wZW5TU0wgR2VuZXJhdGVkIENlcnRpZmljYXRlMA0GCSqG
SIb3DQEBBQUAA0EA0Ux4ra++AWFcWZ54cIzFAFxWuwIaRl5JSTUDO77OzPGMv3L7
fTiNBsphom5k8eugRKnoDBi8nmrI4o6+PxbsiQ==
-----END CERTIFICATE-----
